(dp0
I2100
ccollections
Counter
p1
((dp2
I100
F21.0
stp3
Rp4
sI2101
g1
((dp5
I401
F0.25
sI201
F0.25
sI100
F18.5
sI301
F0.25
sI101
F0.25
stp6
Rp7
sI2102
g1
((dp8
I100
F16.461538461538463
sI101
F0.38461538461538464
sI201
F0.38461538461538464
sI202
F0.07692307692307693
sI301
F0.38461538461538464
sI302
F0.07692307692307693
sI401
F0.38461538461538464
sI402
F0.07692307692307693
stp9
Rp10
sI2103
g1
((dp11
I100
F14.486486486486488
sI101
F0.4864864864864865
sI201
F0.5135135135135136
sI202
F0.13513513513513514
sI301
F0.5135135135135136
sI302
F0.13513513513513514
sI303
F0.02702702702702703
sI401
F0.5135135135135136
sI402
F0.13513513513513514
sI403
F0.02702702702702703
stp12
Rp13
sI2104
g1
((dp14
I100
F12.489583333333332
sI101
F0.5729166666666666
sI201
F0.6354166666666666
sI202
F0.19791666666666666
sI301
F0.6458333333333333
sI302
F0.19791666666666666
sI303
F0.05208333333333333
sI401
F0.6458333333333333
sI402
F0.19791666666666666
sI403
F0.05208333333333333
stp15
Rp16
sI2105
g1
((dp17
I100
F10.506382978723405
sI101
F0.6425531914893617
sI201
F0.7489361702127659
sI202
F0.25957446808510637
sI301
F0.774468085106383
sI302
F0.26382978723404255
sI303
F0.08085106382978724
sI401
F0.774468085106383
sI402
F0.26382978723404255
sI403
F0.08085106382978724
stp18
Rp19
sI2106
g1
((dp20
I100
F8.59597806215722
sI101
F0.7056672760511883
sI201
F0.8610603290676416
sI202
F0.3217550274223035
sI301
F0.9049360146252285
sI302
F0.3327239488117002
sI303
F0.113345521023766
sI401
F0.8738574040219378
sI402
F0.3327239488117002
sI403
F0.113345521023766
stp21
Rp22
sI2107
g1
((dp23
I100
F6.87115544472153
sI101
F0.772236076475478
sI201
F0.9792186201163757
sI202
F0.3915211970074813
sI301
F1.028262676641729
sI302
F0.4114713216957606
sI303
F0.1512884455527847
sI401
F0.9118869492934331
sI402
F0.3973399833748961
sI403
F0.1512884455527847
stp24
Rp25
sI2108
g1
((dp26
I100
F5.418019480519481
sI101
F0.8510551948051949
sI201
F1.109172077922078
sI202
F0.4780844155844156
sI301
F1.127029220779221
sI302
F0.5020292207792209
sI303
F0.20089285714285715
sI401
F0.877435064935065
sI402
F0.445211038961039
sI403
F0.1939935064935065
stp27
Rp28
sI2109
g1
((dp29
I100
F4.251188932122784
sI101
F0.9474708171206225
sI201
F1.2524859489840034
sI202
F0.5907911802853437
sI301
F1.1843925637699957
sI302
F0.6003026372676178
sI303
F0.2674016428880242
sI401
F0.7851275399913532
sI402
F0.46735840899265024
sI403
F0.23713791612624296
stp30
Rp31
sI2110
g1
((dp32
I100
F3.3368970344915363
sI101
F1.0640193458062874
sI201
F1.4058801069110347
sI202
F0.7374315896652667
sI301
F1.190403461881125
sI302
F0.6973399516354842
sI303
F0.3534427898689067
sI401
F0.6597938144329897
sI402
F0.4622629502354588
sI403
F0.2751686394298078
stp33
Rp34
sI2111
g1
((dp35
I100
F2.6246339218475443
sI101
F1.2025771901932893
sI201
F1.5609572420717932
sI202
F0.924274119320559
sI301
F1.1438373357878002
sI302
F0.7826123336959251
sI303
F0.458455359384152
sI401
F0.5242239143167936
sI402
F0.43377123253284244
sI403
F0.3039076227930717
stp36
Rp37
sI2112
g1
((dp38
I100
F2.066365101003842
sI101
F1.3659685215020447
sI201
F1.7039905812368323
sI202
F1.1559672821911018
sI301
F1.0505638864791176
sI302
F0.8470690296195316
sI303
F0.5795637625480233
sI401
F0.39459660428801585
sI402
F0.3882141529309704
sI403
F0.3212293964555707
stp39
Rp40
sI2113
g1
((dp41
I100
F1.6238522537562605
sI101
F1.5594219532554257
sI201
F1.8157867278797997
sI202
F1.4346306343906512
sI301
F0.9215880634390652
sI302
F0.8844949916527546
sI303
F0.7131677796327213
sI401
F0.28046744574290483
sI402
F0.332220367278798
sI403
F0.3268468280467446
stp42
Rp43
sI2114
g1
((dp44
I100
F1.2689160521264775
sI101
F1.7914940903121528
sI201
F1.874229720173755
sI202
F1.7580058591776948
sI301
F0.7701282957874533
sI302
F0.8922618446307709
sI303
F0.8563491261743611
sI401
F0.18653399333265988
sI402
F0.2715425800585918
sI403
F0.3216486513789272
stp45
Rp46
sI2115
g1
((dp47
I100
F0.9811094623901382
sI101
F2.075390937107636
sI201
F1.858577787923753
sI202
F2.117680630065061
sI301
F0.6098618879123388
sI302
F0.8701632233763269
sI303
F1.0081611688163452
sI401
F0.11402807898641708
sI402
F0.210763611459879
sI403
F0.3068142906060952
stp48
Rp49
sI2116
g1
((dp50
I100
F0.7455507824486038
sI101
F2.4302700214789814
sI201
F1.7545259281988341
sI202
F2.4981589444614913
sI301
F0.45220926664621053
sI302
F0.8197299785210187
sI303
F1.1696072414851182
sI401
F0.06198220312979442
sI402
F0.15326787358085303
sI403
F0.28329242098803314
stp51
Rp52
sI2117
g1
((dp53
I100
F0.5508048289738431
sI101
F2.8854376257545273
sI201
F1.5564637826961771
sI202
F2.87625754527163
sI301
F0.3065895372233401
sI302
F0.7413229376257546
sI303
F1.3438128772635816
sI401
F0.02791750503018109
sI402
F0.10160965794768613
sI403
F0.2512575452716298
stp54
Rp55
sI2118
g1
((dp56
I100
F0.3879781420765027
sI101
F3.4858183710642727
sI201
F1.2685402029664326
sI202
F3.2206609419724175
sI301
F0.17876658860265418
sI302
F0.6344002081707
sI303
F1.5339578454332552
sI401
F0.008587041373926619
sI402
F0.05776736924277908
sI403
F0.21025240697371844
stp57
Rp58
sI2119
g1
((dp59
I100
F0.24892703862660945
sI101
F4.309728183118741
sI201
F0.902002861230329
sI202
F3.4871244635193133
sI301
F0.07582260371959942
sI302
F0.49141630901287553
sI303
F1.743919885550787
sI402
F0.023605150214592273
sI403
F0.15879828326180256
stp60
Rp61
sI2120
g1
((dp62
I403
F0.09455587392550142
sI100
F0.12607449856733524
sI101
F5.501432664756447
sI201
F0.47564469914040114
sI202
F3.6131805157593124
sI302
F0.3037249283667622
sI303
F1.968481375358166
stp63
Rp64
sI2200
g1
((dp65
I100
F22.0
stp66
Rp67
sI2201
g1
((dp68
I401
F0.25
sI201
F0.25
sI100
F19.5
sI301
F0.25
sI101
F0.25
stp69
Rp70
sI2202
g1
((dp71
I100
F17.461538461538463
sI101
F0.38461538461538464
sI201
F0.38461538461538464
sI202
F0.07692307692307693
sI301
F0.38461538461538464
sI302
F0.07692307692307693
sI401
F0.38461538461538464
sI402
F0.07692307692307693
stp72
Rp73
sI2203
g1
((dp74
I100
F15.486486486486488
sI101
F0.4864864864864865
sI201
F0.5135135135135136
sI202
F0.13513513513513514
sI301
F0.5135135135135136
sI302
F0.13513513513513514
sI303
F0.02702702702702703
sI401
F0.5135135135135136
sI402
F0.13513513513513514
sI403
F0.02702702702702703
stp75
Rp76
sI2204
g1
((dp77
I100
F13.489583333333332
sI101
F0.5729166666666666
sI201
F0.6354166666666666
sI202
F0.19791666666666666
sI301
F0.6458333333333333
sI302
F0.19791666666666666
sI303
F0.05208333333333333
sI401
F0.6458333333333333
sI402
F0.19791666666666666
sI403
F0.05208333333333333
stp78
Rp79
sI2205
g1
((dp80
I100
F11.506382978723405
sI101
F0.6425531914893617
sI201
F0.7489361702127659
sI202
F0.25957446808510637
sI301
F0.774468085106383
sI302
F0.26382978723404255
sI303
F0.08085106382978724
sI401
F0.774468085106383
sI402
F0.26382978723404255
sI403
F0.08085106382978724
stp81
Rp82
sI2206
g1
((dp83
I100
F9.561020036429872
sI101
F0.7030965391621129
sI201
F0.8597449908925319
sI202
F0.3205828779599271
sI301
F0.9052823315118397
sI302
F0.331511839708561
sI303
F0.11293260473588343
sI401
F0.8870673952641166
sI402
F0.331511839708561
sI403
F0.11293260473588343
stp84
Rp85
sI2207
g1
((dp86
I100
F7.7487725040916535
sI101
F0.7635024549918167
sI201
F0.9738134206219313
sI202
F0.38625204582651396
sI301
F1.0335515548281506
sI302
F0.40671031096563015
sI303
F0.14893617021276598
sI401
F0.9525368248772504
sI402
F0.39852700490998366
sI403
F0.14893617021276598
stp87
Rp88
sI2208
g1
((dp89
I100
F6.172521467603435
sI101
F0.8321623731459797
sI201
F1.0975800156128026
sI202
F0.4644808743169399
sI301
F1.14519906323185
sI302
F0.4929742388758782
sI303
F0.19398907103825136
sI401
F0.9492583918813426
sI402
F0.45433255269320844
sI403
F0.19008587041373926
stp90
Rp91
sI2209
g1
((dp92
I100
F4.876932342903031
sI101
F0.91567958241317
sI201
F1.23469182895001
sI202
F0.5645452720337282
sI301
F1.2234491066050994
sI302
F0.5890383457137122
sI303
F0.2535635414575387
sI401
F0.8807468379843405
sI402
F0.4882553704075487
sI403
F0.23368801445492873
stp93
Rp94
sI2210
g1
((dp95
I100
F3.848543031398238
sI101
F1.0175062118816354
sI201
F1.384910774791055
sI202
F0.6946013101423085
sI301
F1.255477750169415
sI302
F0.6882764852044274
sI303
F0.33137564942398917
sI401
F0.76722385362548
sI402
F0.49548226790151345
sI403
F0.27467811158798283
stp96
Rp97
sI2211
g1
((dp98
I100
F3.043490479870723
sI101
F1.1393943652076162
sI201
F1.5434553502423944
sI202
F0.8615190051289258
sI301
F1.2359305838544228
sI302
F0.7810018969999297
sI303
F0.4281599100681515
sI401
F0.6324738284268953
sI402
F0.47727113047143965
sI403
F0.3082273589545423
stp99
Rp100
sI2212
g1
((dp101
I100
F2.412255045334893
sI101
F1.283172467583114
sI201
F1.7009359461830944
sI202
F1.0708784244905918
sI301
F1.1667641610607389
sI302
F0.8575119430632738
sI303
F0.5418738422540704
sI401
F0.4956614994637808
sI402
F0.43882226771960614
sI403
F0.3311397094667057
stp102
Rp103
sI2213
g1
((dp104
I100
F1.9123921061637326
sI101
F1.451842275371687
sI201
F1.8425795657629567
sI202
F1.326780485950036
sI301
F1.0556294916156508
sI302
F0.9101106505950797
sI303
F0.6688847484695235
sI401
F0.3693676565648884
sI402
F0.3866306703676946
sI403
F0.34229438381687516
stp105
Rp106
sI2214
g1
((dp107
I100
F1.5115418265024563
sI101
F1.650817686250757
sI201
F1.948616999798102
sI202
F1.6305942526414967
sI301
F0.9140588195706305
sI302
F0.9341813042600444
sI303
F0.8054041321757857
sI401
F0.2605491621239653
sI402
F0.32687260246315364
sI403
F0.34214953899993267
stp108
Rp109
sI2215
g1
((dp110
I100
F1.1864041833282066
sI101
F1.88885471137086
sI201
F1.9966847807512218
sI202
F1.9791858915205576
sI301
F0.7552889709149321
sI302
F0.9283980997299975
sI303
F0.9488362555111247
sI401
F0.17222051334632077
sI402
F0.2646365220957654
sI403
F0.3320004101302163
stp111
Rp112
sI2216
g1
((dp113
I100
F0.9203980099502487
sI101
F2.179630303765724
sI201
F1.9661853334951258
sI202
F2.3630222869392874
sI301
F0.592282489989079
sI302
F0.8938640132669983
sI303
F1.098733972414351
sI401
F0.10472030093435263
sI402
F0.2038183068397848
sI403
F0.3131901468268414
stp114
Rp115
sI2217
g1
((dp116
I100
F0.7014390535236903
sI101
F2.5434844434332518
sI201
F1.843296740799727
sI202
F2.764916671406632
sI301
F0.4356407485353506
sI302
F0.8328877765769864
sI303
F1.2569819691712645
sI401
F0.056652067572948064
sI402
F0.14726124793811501
sI403
F0.2866162334338206
stp117
Rp118
sI2218
g1
((dp119
I100
F0.5199844024176252
sI101
F3.011990641450575
sI201
F1.6238058100994346
sI202
F3.1591928251121075
sI301
F0.2933320335348021
sI302
F0.7466367713004484
sI303
F1.4274712419574964
sI401
F0.02544355624878144
sI402
F0.09709495028270618
sI403
F0.2523883798011308
stp120
Rp121
sI2219
g1
((dp122
I100
F0.36804384485666103
sI101
F3.6338532883642496
sI201
F1.3140809443507588
sI202
F3.5111720067453622
sI301
F0.1701096121416526
sI302
F0.6342748735244519
sI303
F1.614460370994941
sI401
F0.007799325463743676
sI402
F0.055016863406408094
sI403
F0.2099494097807757
stp123
Rp124
sI2220
g1
((dp125
I100
F0.23789346246973367
sI101
F4.493341404358354
sI201
F0.9279661016949153
sI202
F3.7736077481840193
sI301
F0.07142857142857144
sI302
F0.488498789346247
sI303
F1.8214285714285716
sI402
F0.022397094430992737
sI403
F0.1579903147699758
stp126
Rp127
sI200
g1
((dp128
I100
F2.0
stp129
Rp130
sI201
g1
((dp131
I201
F0.5
sI100
F0.5
sI101
F0.5
stp132
Rp133
sI202
g1
((dp134
I202
F0.5
sI101
F1.0
stp135
Rp136
sI203
g1
((dp137
tp138
Rp139
sI204
g1
((dp140
tp141
Rp142
sI205
g1
((dp143
tp144
Rp145
sI206
g1
((dp146
tp147
Rp148
sI207
g1
((dp149
tp150
Rp151
sI208
g1
((dp152
tp153
Rp154
sI209
g1
((dp155
tp156
Rp157
sI210
g1
((dp158
tp159
Rp160
sI211
g1
((dp161
tp162
Rp163
sI212
g1
((dp164
tp165
Rp166
sI213
g1
((dp167
tp168
Rp169
sI2300
g1
((dp170
I100
F23.0
stp171
Rp172
sI2301
g1
((dp173
I401
F0.25
sI201
F0.25
sI100
F20.5
sI301
F0.25
sI101
F0.25
stp174
Rp175
sI2302
g1
((dp176
I100
F18.461538461538463
sI101
F0.38461538461538464
sI201
F0.38461538461538464
sI202
F0.07692307692307693
sI301
F0.38461538461538464
sI302
F0.07692307692307693
sI401
F0.38461538461538464
sI402
F0.07692307692307693
stp177
Rp178
sI2303
g1
((dp179
I100
F16.486486486486488
sI101
F0.4864864864864865
sI201
F0.5135135135135136
sI202
F0.13513513513513514
sI301
F0.5135135135135136
sI302
F0.13513513513513514
sI303
F0.02702702702702703
sI401
F0.5135135135135136
sI402
F0.13513513513513514
sI403
F0.02702702702702703
stp180
Rp181
sI2304
g1
((dp182
I100
F14.489583333333332
sI101
F0.5729166666666666
sI201
F0.6354166666666666
sI202
F0.19791666666666666
sI301
F0.6458333333333333
sI302
F0.19791666666666666
sI303
F0.05208333333333333
sI401
F0.6458333333333333
sI402
F0.19791666666666666
sI403
F0.05208333333333333
stp183
Rp184
sI2305
g1
((dp185
I100
F12.506382978723405
sI101
F0.6425531914893617
sI201
F0.7489361702127659
sI202
F0.25957446808510637
sI301
F0.774468085106383
sI302
F0.26382978723404255
sI303
F0.08085106382978724
sI401
F0.774468085106383
sI402
F0.26382978723404255
sI403
F0.08085106382978724
stp186
Rp187
sI2306
g1
((dp188
I100
F10.541818181818181
sI101
F0.7018181818181818
sI201
F0.8581818181818182
sI202
F0.32
sI301
F0.9054545454545454
sI302
F0.33090909090909093
sI303
F0.11272727272727273
sI401
F0.8945454545454545
sI402
F0.33090909090909093
sI403
F0.11272727272727273
stp189
Rp190
sI2307
g1
((dp191
I100
F8.670721816707218
sI101
F0.7583130575831306
sI201
F0.9683698296836983
sI202
F0.38280616382806165
sI301
F1.037307380373074
sI302
F0.40389294403892945
sI303
F0.14760746147607462
sI401
F0.9789132197891323
sI402
F0.39902676399026765
sI403
F0.14760746147607462
stp192
Rp193
sI2308
g1
((dp194
I100
F6.995051389417587
sI101
F0.8203273696231443
sI201
F1.0856490293110013
sI202
F0.45451084887704607
sI301
F1.1591168633422155
sI302
F0.48686714883897986
sI303
F0.18956985154168254
sI401
F1.0026646364674534
sI402
F0.4594594594594595
sI403
F0.1872858774267225
stp195
Rp196
sI2309
g1
((dp197
I100
F5.581124880838894
sI101
F0.8949475691134413
sI201
F1.215443279313632
sI202
F0.5437559580552908
sI301
F1.2556720686367968
sI302
F0.5805529075309819
sI303
F0.2438512869399428
sI401
F0.9590085795996186
sI402
F0.5021925643469971
sI403
F0.23012392755004765
stp198
Rp199
sI2310
g1
((dp200
I100
F4.437105943152455
sI101
F0.9862532299741602
sI201
F1.359483204134367
sI202
F0.6589147286821705
sI301
F1.3121447028423772
sI302
F0.6807235142118863
sI303
F0.3147286821705426
sI401
F0.8621188630490956
sI402
F0.5198966408268734
sI403
F0.2722480620155039
stp201
Rp202
sI2311
g1
((dp203
I100
F3.5316028473244967
sI101
F1.0961585665193911
sI201
F1.5155252822778595
sI202
F0.8071305841924399
sI301
F1.320139911634757
sI302
F0.779025527736868
sI303
F0.40414825724104075
sI401
F0.7337383406971035
sI402
F0.5118433971526755
sI403
F0.3086647029945999
stp204
Rp205
sI2312
g1
((dp206
I100
F2.818222079072389
sI101
F1.2259441178838875
sI201
F1.676946614059103
sI202
F0.9943232144295031
sI301
F1.277759884048635
sI302
F0.8661325388517593
sI303
F0.5111120057975682
sI401
F0.594854658185039
sI402
F0.48139946855624444
sI403
F0.3358160882518721
stp207
Rp208
sI2313
g1
((dp209
I100
F2.252934082419037
sI101
F1.3776803835632556
sI201
F1.8322793187634203
sI202
F1.225166926493514
sI301
F1.189546136423802
sI302
F0.9335235461952526
sI303
F0.6327911286289967
sI401
F0.46042297849810276
sI402
F0.43459717033855927
sI403
F0.35170750360325914
stp210
Rp211
sI2314
g1
((dp212
I100
F1.8001109422858934
sI101
F1.5551455514555146
sI201
F1.9649325905023758
sI202
F1.5023514941031764
sI301
F1.0642741721534863
sI302
F0.9753515182210646
sI303
F0.7654294190000723
sI401
F0.33989339893398934
sI402
F0.3775173045848106
sI403
F0.3563417987121048
stp213
Rp214
sI2315
g1
((dp215
I100
F1.4331287244052153
sI101
F1.7647968098929165
sI201
F2.0545051301581614
sI202
F1.8251713786459969
sI301
F0.9138402258165689
sI302
F0.9885747569335545
sI303
F0.9059769702943681
sI401
F0.2380034947802321
sI402
F0.3157175500694476
sI403
F0.3506653523903401
stp216
Rp217
sI2316
g1
((dp218
I100
F1.132693959347266
sI101
F2.0165330661322645
sI201
F2.0802080351178547
sI202
F2.1879234659795785
sI301
F0.7506680026720107
sI302
F0.9731844641664281
sI303
F1.0527722110888444
sI401
F0.15647962591850367
sI402
F0.25345929955148394
sI403
F0.336220059165951
stp219
Rp220
sI2317
g1
((dp221
I100
F0.8846859103276943
sI101
F2.3249142316337394
sI201
F2.025139003903939
sI202
F2.578788595764817
sI301
F0.5864781734295517
sI302
F0.9305867739264166
sI303
F1.2064355849994084
sI401
F0.09481840766591743
sI402
F0.19398438424228084
sI403
F0.31420797350053237
stp222
Rp223
sI2318
g1
((dp224
I100
F0.678473521604804
sI101
F2.710848091902006
sI201
F1.879857273399765
sI202
F2.979591836734694
sI301
F0.43035551107436576
sI302
F0.8628867325181672
sI303
F1.3691745354858362
sI401
F0.05121622209651451
sI402
F0.139506548888212
sI403
F0.28540968626256474
stp225
Rp226
sI2319
g1
((dp227
I100
F0.5055698371893744
sI101
F3.2059671262756093
sI201
F1.6432967204175428
sI202
F3.3653501596946325
sI301
F0.2893199345641505
sI302
F0.7704292280127755
sI303
F1.5447534470670716
sI401
F0.022980447144971564
sI402
F0.09168808911739502
sI403
F0.24974682558230113
stp228
Rp229
sI2320
g1
((dp230
I100
F0.35902387640449435
sI101
F3.859375
sI201
F1.3226825842696628
sI202
F3.7034761235955056
sI301
F0.16748595505617977
sI302
F0.6520365168539326
sI303
F1.7363061797752808
sI401
F0.007022471910112359
sI402
F0.05179073033707865
sI403
F0.20663623595505617
stp231
Rp232
sI2321
g1
((dp233
I100
F0.23218029350104824
sI101
F4.756289308176101
sI201
F0.9308176100628931
sI202
F3.948637316561845
sI301
F0.07023060796645703
sI302
F0.5
sI303
F1.9465408805031448
sI402
F0.020964360587002098
sI403
F0.15461215932914046
stp234
Rp235
sI300
g1
((dp236
I100
F3.0
stp237
Rp238
sI301
g1
((dp239
I201
F0.3333333333333333
sI100
F1.0
sI101
F0.3333333333333333
sI301
F0.3333333333333333
stp240
Rp241
sI302
g1
((dp242
I201
F0.25
sI202
F0.25
sI100
F0.5
sI101
F0.75
sI302
F0.25
stp243
Rp244
sI303
g1
((dp245
I202
F0.3333333333333333
sI101
F1.3333333333333333
sI303
F0.3333333333333333
stp246
Rp247
sI304
g1
((dp248
tp249
Rp250
sI305
g1
((dp251
tp252
Rp253
sI306
g1
((dp254
tp255
Rp256
sI307
g1
((dp257
tp258
Rp259
sI308
g1
((dp260
tp261
Rp262
sI309
g1
((dp263
tp264
Rp265
sI310
g1
((dp266
tp267
Rp268
sI311
g1
((dp269
tp270
Rp271
sI312
g1
((dp272
tp273
Rp274
sI313
g1
((dp275
tp276
Rp277
sI2401
g1
((dp278
I401
F0.25
sI201
F0.25
sI100
F21.5
sI301
F0.25
sI101
F0.25
stp279
Rp280
sI2402
g1
((dp281
I100
F19.461538461538463
sI101
F0.38461538461538464
sI201
F0.38461538461538464
sI202
F0.07692307692307693
sI301
F0.38461538461538464
sI302
F0.07692307692307693
sI401
F0.38461538461538464
sI402
F0.07692307692307693
stp282
Rp283
sI2403
g1
((dp284
I100
F17.486486486486488
sI101
F0.4864864864864865
sI201
F0.5135135135135136
sI202
F0.13513513513513514
sI301
F0.5135135135135136
sI302
F0.13513513513513514
sI303
F0.02702702702702703
sI401
F0.5135135135135136
sI402
F0.13513513513513514
sI403
F0.02702702702702703
stp285
Rp286
sI2404
g1
((dp287
I100
F15.489583333333332
sI101
F0.5729166666666666
sI201
F0.6354166666666666
sI202
F0.19791666666666666
sI301
F0.6458333333333333
sI302
F0.19791666666666666
sI303
F0.05208333333333333
sI401
F0.6458333333333333
sI402
F0.19791666666666666
sI403
F0.05208333333333333
stp288
Rp289
sI2405
g1
((dp290
I100
F13.506382978723405
sI101
F0.6425531914893617
sI201
F0.7489361702127659
sI202
F0.25957446808510637
sI301
F0.774468085106383
sI302
F0.26382978723404255
sI303
F0.08085106382978724
sI401
F0.774468085106383
sI402
F0.26382978723404255
sI403
F0.08085106382978724
stp291
Rp292
sI2406
g1
((dp293
I100
F11.52087114337568
sI101
F0.7005444646098004
sI201
F0.8566243194192377
sI202
F0.3194192377495463
sI301
F0.9038112522686025
sI302
F0.33030852994555354
sI303
F0.11252268602540834
sI401
F0.9038112522686025
sI402
F0.33030852994555354
sI403
F0.11252268602540834
stp294
Rp295
sI2407
g1
((dp296
I100
F9.5929203539823
sI101
F0.7530168946098149
sI201
F0.9629927594529364
sI202
F0.3797264682220434
sI301
F1.0345937248592114
sI302
F0.40064360418342715
sI303
F0.14641995172968622
sI401
F1.008849557522124
sI402
F0.40064360418342715
sI403
F0.14641995172968622
stp297
Rp298
sI2408
g1
((dp299
I100
F7.822346368715084
sI101
F0.8074487895716945
sI201
F1.0741154562383612
sI202
F0.44581005586592176
sI301
F1.1608938547486034
sI302
F0.47895716945996275
sI303
F0.18547486033519553
sI401
F1.0610800744878957
sI402
F0.4670391061452514
sI403
F0.18547486033519553
stp300
Rp301
sI2409
g1
((dp302
I100
F6.293163172288058
sI101
F0.8718322698268004
sI201
F1.196718322698268
sI202
F0.5257976298997266
sI301
F1.2712853236098451
sI302
F0.5682771194165908
sI303
F0.23445761166818596
sI401
F1.0439380127620785
sI402
F0.5194165907019144
sI403
F0.22862351868732908
stp303
Rp304
sI2410
g1
((dp305
I100
F5.033393933594871
sI101
F0.9510094727777245
sI201
F1.334130705195675
sI202
F0.6280738685293273
sI301
F1.3509711989283322
sI302
F0.667208879533059
sI303
F0.29824897139029755
sI401
F0.9649794278059516
sI402
F0.5478901540522437
sI403
F0.2726054922973878
stp306
Rp307
sI2411
g1
((dp308
I100
F4.024798343143667
sI101
F1.0473621103117505
sI201
F1.486047525615871
sI202
F0.7599193372574667
sI301
F1.3879441901024634
sI302
F0.7695116633965554
sI303
F0.38004142140832786
sI401
F0.8441247002398081
sI402
F0.5496511881403967
sI403
F0.3120776106387617
stp309
Rp310
sI2412
g1
((dp311
I100
F3.225528875586695
sI101
F1.16179171484933
sI201
F1.6482892320250324
sI202
F0.9273518808244338
sI301
F1.3758587851166588
sI302
F0.8661315556764846
sI303
F0.4802054282021631
sI401
F0.7039317053261683
sI402
F0.5267668866063533
sI403
F0.3430038772872594
stp312
Rp313
sI2413
g1
((dp314
I100
F2.5910826831611256
sI101
F1.2953773341768
sI201
F1.8128675523066469
sI202
F1.1354701155080715
sI301
F1.3147536374499191
sI302
F0.9477987863452122
sI303
F0.5966589348890607
sI401
F0.5620065134368923
sI402
F0.484923033668377
sI403
F0.36287809563974605
stp315
Rp316
sI2414
g1
((dp317
I100
F2.083014873423399
sI101
F1.4502754005418304
sI201
F1.9672748802411324
sI202
F1.3882160862622674
sI301
F1.210273247573425
sI302
F1.0067818504763442
sI303
F0.7257835907924718
sI401
F0.4301092631465633
sI402
F0.4303604427938353
sI403
F0.37133322568491306
stp318
Rp319
sI2415
g1
((dp320
I100
F1.6715917136085203
sI101
F1.630559916274202
sI201
F2.0944531658817374
sI202
F1.6875981161695448
sI301
F1.0721827192415427
sI302
F1.0382152861144458
sI303
F0.86365315356912
sI401
F0.31475667189952905
sI402
F0.36896296980330595
sI403
F0.36917844060701205
stp321
Rp322
sI2416
g1
((dp323
I100
F1.3348962922036227
sI101
F1.8429226335359208
sI201
F2.174040945540341
sI202
F2.032120298057252
sI301
F0.9126883390326579
sI302
F1.0402735675780608
sI303
F1.0073170367494437
sI401
F0.21888392790478894
sI402
F0.30538922155688625
sI403
F0.35798228978452074
stp324
Rp325
sI2417
g1
((dp326
I100
F1.0571499668214996
sI101
F2.097561380225614
sI201
F2.1857000663570005
sI202
F2.4152123424021235
sI301
F0.7442601194426012
sI302
F1.0139349701393496
sI303
F1.1556735235567352
sI401
F0.14303251493032515
sI402
F0.24316522893165227
sI403
F0.3392667551426675
stp327
Rp328
sI2418
g1
((dp329
I100
F0.8267355380757443
sI101
F2.409541976552286
sI201
F2.113252030777804
sI202
F2.8238849475962877
sI301
F0.5780697430181966
sI302
F0.9615706110551472
sI303
F1.3099856398825471
sI401
F0.08618213772852948
sI402
F0.18479542190882398
sI403
F0.314165077051675
stp330
Rp331
sI2419
g1
((dp332
I100
F0.6347543352601156
sI101
F2.800807934839727
sI201
F1.9483053074093535
sI202
F3.2382422490803995
sI301
F0.42245796111403044
sI302
F0.8858053074093536
sI303
F1.4734629532317394
sI401
F0.04630846032580137
sI402
F0.1320612191276931
sI403
F0.2831713084603258
stp333
Rp334
sI2420
g1
((dp335
I100
F0.47380340310931573
sI101
F3.3046884563594077
sI201
F1.691455502509487
sI202
F3.6309217774513405
sI301
F0.2833272126331252
sI302
F0.7873056677683927
sI303
F1.6508140531276778
sI401
F0.02068796670339087
sI402
F0.08630187293426368
sI403
F0.2461133553678541
stp336
Rp337
sI2421
g1
((dp338
I100
F0.33744796899669877
sI101
F3.9728721113822307
sI201
F1.3519448830199512
sI202
F3.9665566240849723
sI301
F0.16391560212430029
sI302
F0.6644179704320368
sI303
F1.8462752978326398
sI401
F0.006315487297258505
sI402
F0.04851442514712215
sI403
F0.202382661116693
stp339
Rp340
sI400
g1
((dp341
I100
F4.0
stp342
Rp343
sI401
g1
((dp344
I401
F0.25
sI201
F0.25
sI100
F1.5
sI301
F0.25
sI101
F0.25
stp345
Rp346
sI402
g1
((dp347
I402
F0.14285714285714285
sI100
F0.8571428571428571
sI101
F0.5714285714285714
sI201
F0.42857142857142855
sI202
F0.14285714285714285
sI301
F0.14285714285714285
sI302
F0.14285714285714285
stp348
Rp349
sI403
g1
((dp350
I403
F0.125
sI100
F0.375
sI101
F0.875
sI201
F0.375
sI202
F0.375
sI302
F0.125
sI303
F0.125
stp351
Rp352
sI404
g1
((dp353
I202
F0.75
sI101
F1.75
sI303
F0.25
stp354
Rp355
sI405
g1
((dp356
tp357
Rp358
sI406
g1
((dp359
tp360
Rp361
sI407
g1
((dp362
tp363
Rp364
sI408
g1
((dp365
tp366
Rp367
sI409
g1
((dp368
tp369
Rp370
sI410
g1
((dp371
tp372
Rp373
sI411
g1
((dp374
tp375
Rp376
sI412
g1
((dp377
tp378
Rp379
sI413
g1
((dp380
tp381
Rp382
sI414
g1
((dp383
tp384
Rp385
sI2501
g1
((dp386
I401
F0.25
sI201
F0.25
sI100
F22.5
sI301
F0.25
sI101
F0.25
stp387
Rp388
sI2502
g1
((dp389
I100
F20.461538461538463
sI101
F0.38461538461538464
sI201
F0.38461538461538464
sI202
F0.07692307692307693
sI301
F0.38461538461538464
sI302
F0.07692307692307693
sI401
F0.38461538461538464
sI402
F0.07692307692307693
stp390
Rp391
sI2503
g1
((dp392
I100
F18.486486486486488
sI101
F0.4864864864864865
sI201
F0.5135135135135136
sI202
F0.13513513513513514
sI301
F0.5135135135135136
sI302
F0.13513513513513514
sI303
F0.02702702702702703
sI401
F0.5135135135135136
sI402
F0.13513513513513514
sI403
F0.02702702702702703
stp393
Rp394
sI2504
g1
((dp395
I100
F16.489583333333332
sI101
F0.5729166666666666
sI201
F0.6354166666666666
sI202
F0.19791666666666666
sI301
F0.6458333333333333
sI302
F0.19791666666666666
sI303
F0.05208333333333333
sI401
F0.6458333333333333
sI402
F0.19791666666666666
sI403
F0.05208333333333333
stp396
Rp397
sI2505
g1
((dp398
I100
F14.506382978723405
sI101
F0.6425531914893617
sI201
F0.7489361702127659
sI202
F0.25957446808510637
sI301
F0.774468085106383
sI302
F0.26382978723404255
sI303
F0.08085106382978724
sI401
F0.774468085106383
sI402
F0.26382978723404255
sI403
F0.08085106382978724
stp399
Rp400
sI2506
g1
((dp401
I100
F12.52087114337568
sI101
F0.7005444646098004
sI201
F0.8566243194192377
sI202
F0.3194192377495463
sI301
F0.9038112522686025
sI302
F0.33030852994555354
sI303
F0.11252268602540834
sI401
F0.9038112522686025
sI402
F0.33030852994555354
sI403
F0.11252268602540834
stp402
Rp403
sI2507
g1
((dp404
I100
F10.567415730337078
sI101
F0.7520064205457464
sI201
F0.9614767255216693
sI202
F0.37881219903691815
sI301
F1.0353130016051364
sI302
F0.39967897271268055
sI303
F0.14606741573033707
sI401
F1.0184590690208668
sI402
F0.39967897271268055
sI403
F0.14606741573033707
stp405
Rp406
sI2508
g1
((dp407
I100
F8.731293770733505
sI101
F0.8031699225949134
sI201
F1.0685587910062662
sI202
F0.44157758938444525
sI301
F1.1662366384076668
sI302
F0.475488389237007
sI303
F0.183560633984519
sI401
F1.0910431256911168
sI402
F0.4677478805750092
sI403
F0.183560633984519
stp408
Rp409
sI2509
g1
((dp410
I100
F7.100283990060348
sI101
F0.8613773517926873
sI201
F1.1844160454384096
sI202
F0.5145544905928292
sI301
F1.2878949236776713
sI302
F0.5615903443379482
sI303
F0.22896698615548455
sI401
F1.1006389776357828
sI402
F0.5253816116435924
sI403
F0.22523961661341854
stp411
Rp412
sI2510
g1
((dp413
I100
F5.723946986201888
sI101
F0.9320079883805374
sI201
F1.3137254901960784
sI202
F0.6057552650689906
sI301
F1.3863471314451707
sI302
F0.6586782861292665
sI303
F0.28721859114015974
sI401
F1.045479302832244
sI402
F0.5629084967320261
sI403
F0.26870007262164125
stp414
Rp415
sI2511
g1
((dp416
I100
F4.603075540466324
sI101
F1.018023865395177
sI201
F1.4580358480203703
sI202
F0.722552299166209
sI301
F1.4478006890009485
sI302
F0.7624943831444405
sI303
F0.36227470168256026
sI401
F0.9403864396624894
sI402
F0.5750162264716161
sI403
F0.3096010784362674
stp417
Rp418
sI2512
g1
((dp419
I100
F3.706635240766156
sI101
F1.120741094337371
sI201
F1.6154305149471926
sI202
F0.8712632018616863
sI301
F1.4629154484157767
sI302
F0.8651470851482785
sI303
F0.45563577779103764
sI401
F0.8064920341309147
sI402
F0.5619368697416314
sI403
F0.3436064204308133
stp420
Rp421
sI2513
g1
((dp422
I100
F2.9927558870621316
sI101
F1.2410864216815716
sI201
F1.780509235755848
sI202
F1.0572499707111338
sI301
F1.428437536611083
sI302
F0.9574335142734409
sI303
F0.5662123638067716
sI401
F0.6630023040574843
sI402
F0.5278244230093334
sI403
F0.36777053149529426
stp423
Rp424
sI2514
g1
((dp425
I100
F2.421549561737268
sI101
F1.3805839745215749
sI201
F1.9438713677743018
sI202
F1.2850116964008906
sI301
F1.3470167131704294
sI302
F1.0309179560891746
sI303
F0.6909895436994448
sI401
F0.523900115554804
sI402
F0.47849553282038276
sI403
F0.38093627575322003
stp426
Rp427
sI2515
g1
((dp428
I100
F1.9601386677507144
sI101
F1.5421818715629483
sI201
F2.0916133112006956
sI202
F1.5576521336540308
sI301
F1.2260916697720112
sI302
F1.0793838996352632
sI303
F0.8260894113395892
sI401
F0.3978793319556896
sI402
F0.4198087107738519
sI403
F0.3834253644545321
stp429
Rp430
sI2516
g1
((dp431
I100
F1.5834185662639622
sI101
F1.7308327172933395
sI201
F2.2057843623732896
sI202
F1.8757354504855743
sI301
F1.0763045701728624
sI302
F1.0995453118512593
sI303
F0.9679794225764311
sI401
F0.2895117925244812
sI402
F0.3568137398859735
sI403
F0.37647976182037285
stp432
Rp433
sI2517
g1
((dp434
I100
F1.2728513800642558
sI101
F1.9541791979306735
sI201
F2.266600289459368
sI202
F2.235806739681595
sI301
F0.9097338410847541
sI302
F1.0909538815269495
sI303
F1.114510947106946
sI401
F0.2005173316362666
sI402
F0.2934522648655862
sI403
F0.3616702421399464
stp435
Rp436
sI2518
g1
((dp437
I100
F1.0148119924749364
sI101
F2.223239587550306
sI201
F2.2560903007644133
sI202
F2.6292358250184553
sI301
F0.7380039530397924
sI302
F1.0552830233610364
sI303
F1.2654966303907795
sI401
F0.13073607506012908
sI402
F0.23259829019122236
sI403
F0.3404019717571976
stp438
Rp439
sI2519
g1
((dp440
I100
F0.7990336147943622
sI101
F2.5536809323530356
sI201
F2.1616207018332423
sI202
F3.0417054612001158
sI301
F0.5709859697563169
sI302
F0.9949914919574919
sI303
F1.422753395190548
sI401
F0.07875557838636145
sI402
F0.176260956111343
sI403
F0.31359360452049956
stp441
Rp442
sI2520
g1
((dp443
I100
F0.6175052572190594
sI101
F2.9678155613684156
sI201
F1.9780735497768887
sI202
F3.453249217828384
sI301
F0.41593578499256295
sI302
F0.912165974252449
sI303
F1.589526593834949
sI401
F0.04239113709801508
sI402
F0.12581422782992255
sI403
F0.28158178181258653
stp444
Rp445
sI2521
g1
((dp446
I100
F0.4636282217136033
sI101
F3.499353169469599
sI201
F1.7078813812319633
sI202
F3.837844561647925
sI301
F0.2779381032938601
sI302
F0.8069957209672604
sI303
F1.7697780873718778
sI401
F0.01900686635486118
sI402
F0.0822469897502239
sI403
F0.2441038909344213
stp447
Rp448
sI500
g1
((dp449
I100
F5.0
stp450
Rp451
sI501
g1
((dp452
I401
F0.25
sI201
F0.25
sI100
F2.5
sI301
F0.25
sI101
F0.25
stp453
Rp454
sI502
g1
((dp455
I100
F1.4444444444444444
sI101
F0.5555555555555556
sI201
F0.4444444444444444
sI202
F0.1111111111111111
sI301
F0.2222222222222222
sI302
F0.1111111111111111
sI401
F0.1111111111111111
sI402
F0.1111111111111111
stp456
Rp457
sI503
g1
((dp458
I100
F0.8461538461538463
sI101
F0.8461538461538463
sI201
F0.46153846153846156
sI202
F0.3076923076923077
sI301
F0.15384615384615385
sI302
F0.15384615384615385
sI303
F0.07692307692307693
sI402
F0.07692307692307693
sI403
F0.07692307692307693
stp459
Rp460
sI504
g1
((dp461
I403
F0.09090909090909091
sI100
F0.36363636363636365
sI101
F1.3636363636363638
sI201
F0.36363636363636365
sI202
F0.5454545454545454
sI302
F0.18181818181818182
sI303
F0.18181818181818182
stp462
Rp463
sI505
g1
((dp464
I202
F0.8
sI101
F2.2
sI303
F0.4
stp465
Rp466
sI506
g1
((dp467
tp468
Rp469
sI507
g1
((dp470
tp471
Rp472
sI508
g1
((dp473
tp474
Rp475
sI509
g1
((dp476
tp477
Rp478
sI510
g1
((dp479
tp480
Rp481
sI511
g1
((dp482
tp483
Rp484
sI512
g1
((dp485
tp486
Rp487
sI513
g1
((dp488
tp489
Rp490
sI514
g1
((dp491
tp492
Rp493
sI2602
g1
((dp494
I100
F21.461538461538463
sI101
F0.38461538461538464
sI201
F0.38461538461538464
sI202
F0.07692307692307693
sI301
F0.38461538461538464
sI302
F0.07692307692307693
sI401
F0.38461538461538464
sI402
F0.07692307692307693
stp495
Rp496
sI2603
g1
((dp497
I100
F19.486486486486488
sI101
F0.4864864864864865
sI201
F0.5135135135135136
sI202
F0.13513513513513514
sI301
F0.5135135135135136
sI302
F0.13513513513513514
sI303
F0.02702702702702703
sI401
F0.5135135135135136
sI402
F0.13513513513513514
sI403
F0.02702702702702703
stp498
Rp499
sI2604
g1
((dp500
I100
F17.489583333333332
sI101
F0.5729166666666666
sI201
F0.6354166666666666
sI202
F0.19791666666666666
sI301
F0.6458333333333333
sI302
F0.19791666666666666
sI303
F0.05208333333333333
sI401
F0.6458333333333333
sI402
F0.19791666666666666
sI403
F0.05208333333333333
stp501
Rp502
sI2605
g1
((dp503
I100
F15.506382978723405
sI101
F0.6425531914893617
sI201
F0.7489361702127659
sI202
F0.25957446808510637
sI301
F0.774468085106383
sI302
F0.26382978723404255
sI303
F0.08085106382978724
sI401
F0.774468085106383
sI402
F0.26382978723404255
sI403
F0.08085106382978724
stp504
Rp505
sI2606
g1
((dp506
I100
F13.52087114337568
sI101
F0.7005444646098004
sI201
F0.8566243194192377
sI202
F0.3194192377495463
sI301
F0.9038112522686025
sI302
F0.33030852994555354
sI303
F0.11252268602540834
sI401
F0.9038112522686025
sI402
F0.33030852994555354
sI403
F0.11252268602540834
stp507
Rp508
sI2607
g1
((dp509
I100
F11.548878205128204
sI101
F0.750801282051282
sI201
F0.9607371794871794
sI202
F0.3782051282051282
sI301
F1.0352564102564101
sI302
F0.3990384615384615
sI303
F0.14583333333333331
sI401
F1.0256410256410255
sI402
F0.3990384615384615
sI403
F0.14583333333333331
stp510
Rp511
sI2608
g1
((dp512
I100
F9.656547183613753
sI101
F0.7984637893196782
sI201
F1.0651060716898317
sI202
F0.4385515727871251
sI301
F1.1675201170446232
sI302
F0.4725676664228237
sI303
F0.18215069495245062
sI401
F1.1174103877103145
sI402
F0.46817849305047554
sI403
F0.18215069495245062
stp513
Rp514
sI2609
g1
((dp515
I100
F7.93135210288495
sI101
F0.8501911713590546
sI201
F1.175877650330205
sI202
F0.5060827250608273
sI301
F1.2945776850886341
sI302
F0.5547445255474452
sI303
F0.22453945081682308
sI401
F1.1548488008342024
sI402
F0.5309350017379214
sI403
F0.2224539450816823
stp516
Rp517
sI2610
g1
((dp518
I100
F6.440956521739131
sI101
F0.911913043478261
sI201
F1.298521739130435
sI202
F0.5883478260869566
sI301
F1.4047826086956523
sI302
F0.6477391304347827
sI303
F0.27756521739130435
sI401
F1.1273043478260871
sI402
F0.5778260869565218
sI403
F0.2656521739130435
stp519
Rp520
sI2611
g1
((dp521
I100
F5.206643778417
sI101
F0.9874269277164333
sI201
F1.4362995267699732
sI202
F0.6928180384151434
sI301
F1.4846896167764685
sI302
F0.7495128514428877
sI303
F0.34559710494571777
sI401
F1.04231233181776
sI402
F0.6014660851814049
sI403
F0.3082954440011135
stp522
Rp523
sI2612
g1
((dp524
I100
F4.209772108662006
sI101
F1.0785878208891497
sI201
F1.5892885734108981
sI202
F0.8261194428136841
sI301
F1.5234562630090196
sI302
F0.8539520734375834
sI303
F0.4310988952340289
sI401
F0.9183700699151411
sI402
F0.5995089929017452
sI403
F0.3459465229225596
stp525
Rp526
sI2613
g1
((dp527
I100
F3.412462660414198
sI101
F1.1862390067252975
sI201
F1.7544348580678537
sI202
F0.9938921616073961
sI301
F1.5149942426113512
sI302
F0.9527226607479599
sI303
F0.5340353453598785
sI401
F0.7756120354454883
sI402
F0.5743203778182
sI403
F0.3749144735744205
stp528
Rp529
sI2614
g1
((dp530
I100
F2.7738110198439445
sI101
F1.3112197685444347
sI201
F1.9252053511247187
sI202
F1.2010441776244387
sI301
F1.4587412747192487
sI302
F1.037128854260679
sI303
F0.652211166074509
sI401
F0.6304250968206276
sI402
F0.5309654644534062
sI403
F0.39316600596346524
stp531
Rp532
sI2615
g1
((dp533
I100
F2.258064793997812
sI101
F1.4551601760687736
sI201
F2.0911354023998414
sI202
F1.4516112360131277
sI301
F1.3590114651437235
sI302
F1.0998957714206958
sI303
F0.7819986045429879
sI401
F0.49394871264783663
sI402
F0.4753426191522168
sI403
F0.40034972564626026
stp534
Rp535
sI2616
g1
((dp536
I100
F1.837015381070338
sI101
F1.6211187280373294
sI201
F2.2373768650267873
sI202
F1.7480989688346102
sI301
F1.224141655625324
sI302
F1.1360749467135203
sI303
F0.9194654069934903
sI401
F0.37268131804827465
sI402
F0.41291981104902353
sI403
F0.397365919695835
stp537
Rp538
sI2617
g1
((dp539
I100
F1.4896431094217768
sI101
F1.8141679841232465
sI201
F2.345460661307141
sI202
F2.090275488580174
sI301
F1.0649601399307074
sI302
F1.1436577079619228
sI303
F1.0613811429916915
sI401
F0.26972989337011
sI402
F0.34817854620067945
sI403
F0.3857714689360557
stp540
Rp541
sI2618
g1
((dp542
I100
F1.200649935786912
sI101
F2.042082632665659
sI201
F2.3955597181719495
sI202
F2.473736492191547
sI301
F0.8932998431923483
sI302
F1.1232039847591477
sI303
F1.2062056095986151
sI401
F0.1859341407863088
sI402
F0.2844817187821509
sI403
F0.36722081497406645
stp543
Rp544
sI2619
g1
((dp545
I100
F0.9588791443850267
sI101
F2.3162096256684492
sI201
F2.3701304812834225
sI202
F2.8887529411764707
sI301
F0.7201368983957219
sI302
F1.0772106951871658
sI303
F1.3544470588235293
sI401
F0.120675935828877
sI402
F0.2242139037433155
sI403
F0.34305026737967914
stp546
Rp547
sI2620
g1
((dp548
I100
F0.7558540852767058
sI101
F2.6528892936749515
sI201
F2.257364043812765
sI202
F3.319619873930446
sI301
F0.5545023128729957
sI302
F1.008628334491767
sI303
F1.5087481724708194
sI401
F0.07235817175179157
sI402
F0.1690194856553939
sI403
F0.31403542410660784
stp549
Rp550
sI2621
g1
((dp551
I100
F0.584764631043257
sI101
F3.075719624681934
sI201
F2.053415235368957
sI202
F3.7445928753180664
sI301
F0.4026319974554708
sI302
F0.9198274491094148
sI303
F1.6731472646310435
sI401
F0.03876431297709924
sI402
F0.12003021628498729
sI403
F0.2803753180661578
stp552
Rp553
sI2622
g1
((dp554
I100
F0.4397069421090559
sI101
F3.620305869164865
sI201
F1.762390903995516
sI202
F4.135439186484106
sI301
F0.26863640003202816
sI302
F0.8108735687404915
sI303
F1.8524701737529023
sI401
F0.017295219793418207
sI402
F0.07806870045640163
sI403
F0.24173272479782207
stp555
Rp556
sI600
g1
((dp557
I100
F6.0
stp558
Rp559
sI601
g1
((dp560
I401
F0.25
sI201
F0.25
sI100
F3.5
sI301
F0.25
sI101
F0.25
stp561
Rp562
sI602
g1
((dp563
I100
F2.0
sI101
F0.4545454545454546
sI201
F0.4545454545454546
sI202
F0.09090909090909091
sI301
F0.36363636363636365
sI302
F0.09090909090909091
sI401
F0.18181818181818182
sI402
F0.09090909090909091
stp564
Rp565
sI603
g1
((dp566
I100
F1.2000000000000002
sI101
F0.7000000000000001
sI201
F0.55
sI202
F0.25
sI301
F0.25
sI302
F0.2
sI303
F0.05
sI401
F0.1
sI402
F0.1
sI403
F0.05
stp567
Rp568
sI604
g1
((dp569
I100
F0.625
sI101
F1.0
sI201
F0.5833333333333333
sI202
F0.4583333333333333
sI301
F0.16666666666666666
sI302
F0.20833333333333331
sI303
F0.16666666666666666
sI402
F0.08333333333333333
sI403
F0.08333333333333333
stp570
Rp571
sI605
g1
((dp572
I403
F0.1111111111111111
sI100
F0.2777777777777778
sI101
F1.4444444444444444
sI201
F0.38888888888888884
sI202
F0.7777777777777777
sI302
F0.2222222222222222
sI303
F0.2777777777777778
stp573
Rp574
sI606
g1
((dp575
I202
F1.0
sI101
F2.2857142857142856
sI303
F0.5714285714285714
stp576
Rp577
sI607
g1
((dp578
tp579
Rp580
sI608
g1
((dp581
tp582
Rp583
sI609
g1
((dp584
tp585
Rp586
sI610
g1
((dp587
tp588
Rp589
sI611
g1
((dp590
tp591
Rp592
sI612
g1
((dp593
tp594
Rp595
sI613
g1
((dp596
tp597
Rp598
sI614
g1
((dp599
tp600
Rp601
sI615
g1
((dp602
tp603
Rp604
sI2702
g1
((dp605
I100
F22.461538461538463
sI101
F0.38461538461538464
sI201
F0.38461538461538464
sI202
F0.07692307692307693
sI301
F0.38461538461538464
sI302
F0.07692307692307693
sI401
F0.38461538461538464
sI402
F0.07692307692307693
stp606
Rp607
sI2703
g1
((dp608
I100
F20.486486486486488
sI101
F0.4864864864864865
sI201
F0.5135135135135136
sI202
F0.13513513513513514
sI301
F0.5135135135135136
sI302
F0.13513513513513514
sI303
F0.02702702702702703
sI401
F0.5135135135135136
sI402
F0.13513513513513514
sI403
F0.02702702702702703
stp609
Rp610
sI2704
g1
((dp611
I100
F18.489583333333332
sI101
F0.5729166666666666
sI201
F0.6354166666666666
sI202
F0.19791666666666666
sI301
F0.6458333333333333
sI302
F0.19791666666666666
sI303
F0.05208333333333333
sI401
F0.6458333333333333
sI402
F0.19791666666666666
sI403
F0.05208333333333333
stp612
Rp613
sI2705
g1
((dp614
I100
F16.506382978723405
sI101
F0.6425531914893617
sI201
F0.7489361702127659
sI202
F0.25957446808510637
sI301
F0.774468085106383
sI302
F0.26382978723404255
sI303
F0.08085106382978724
sI401
F0.774468085106383
sI402
F0.26382978723404255
sI403
F0.08085106382978724
stp615
Rp616
sI2706
g1
((dp617
I100
F14.52087114337568
sI101
F0.7005444646098004
sI201
F0.8566243194192377
sI202
F0.3194192377495463
sI301
F0.9038112522686025
sI302
F0.33030852994555354
sI303
F0.11252268602540834
sI401
F0.9038112522686025
sI402
F0.33030852994555354
sI403
F0.11252268602540834
stp618
Rp619
sI2707
g1
((dp620
I100
F12.53883106485188
sI101
F0.7502001601281024
sI201
F0.9599679743795035
sI202
F0.37790232185748596
sI301
F1.0352281825460368
sI302
F0.3987189751801441
sI303
F0.14571657325860687
sI401
F1.0296236989591672
sI402
F0.3987189751801441
sI403
F0.14571657325860687
stp621
Rp622
sI2708
g1
((dp623
I100
F10.609978150036417
sI101
F0.7957028404952659
sI201
F1.0619082301529499
sI202
F0.4366351056081573
sI301
F1.1686088856518573
sI302
F0.4708667152221413
sI303
F0.18135469774217045
sI401
F1.13401310997815
sI402
F0.46831755280407866
sI403
F0.18135469774217045
stp624
Rp625
sI2709
g1
((dp626
I100
F8.811899862825788
sI101
F0.8431069958847736
sI201
F1.1676954732510287
sI202
F0.49999999999999994
sI301
F1.3007544581618655
sI302
F0.5502400548696844
sI303
F0.22170781893004113
sI401
F1.1934156378600822
sI402
F0.5339506172839505
sI403
F0.22050754458161864
stp627
Rp628
sI2710
g1
((dp629
I100
F7.220572103619948
sI101
F0.8983208168087081
sI201
F1.2830984727027255
sI202
F0.5746350518943549
sI301
F1.4227491350940848
sI302
F0.6401147582482491
sI303
F0.2707788372289258
sI401
F1.1911231119736732
sI402
F0.5872922116277107
sI403
F0.26276263606446715
stp630
Rp631
sI2711
g1
((dp632
I100
F5.874670648164413
sI101
F0.9655278412085018
sI201
F1.4123045845775515
sI202
F0.6677498682592657
sI301
F1.5220446161953276
sI302
F0.7404268399789216
sI303
F0.3331284033023011
sI401
F1.127700685051818
sI402
F0.6198840681538732
sI403
F0.3056385034252591
stp633
Rp634
sI2712
g1
((dp635
I100
F4.771390864432876
sI101
F1.04692426130948
sI201
F1.5569078866974606
sI202
F0.7860058166532248
sI301
F1.5862844294547498
sI302
F0.847080675513845
sI303
F0.41207810934330474
sI401
F1.0172788816384388
sI402
F0.6276119950142972
sI403
F0.3449910795024073
stp636
Rp637
sI2713
g1
((dp638
I100
F3.8813322959940106
sI101
F1.143417054445635
sI201
F1.7155292632444255
sI202
F0.9351320405736683
sI301
F1.606505879071679
sI302
F0.9527765952761916
sI303
F0.5087855790261733
sI401
F0.8794533417494825
sI402
F0.61101243339254
sI403
F0.3769651953084861
stp639
Rp640
sI2714
g1
((dp641
I100
F3.1661107596756572
sI101
F1.2556405390380894
sI201
F1.8838250234822782
sI202
F1.120123833074549
sI301
F1.5787279314509173
sI302
F1.048938984415435
sI303
F0.6220982613529626
sI401
F0.7320911687465257
sI402
F0.5742231679030806
sI403
F0.39894952747905765
stp642
Rp643
sI2715
g1
((dp644
I100
F2.588874667177736
sI101
F1.3847322705836453
sI201
F2.0540181657643104
sI202
F1.3453001047235094
sI301
F1.504199207386772
sI302
F1.1274204477785612
sI303
F0.7490811025400584
sI401
F0.5885324334868822
sI402
F0.5228098754953833
sI403
F0.4100712530544357
stp645
Rp646
sI2716
g1
((dp647
I100
F2.118946071972162
sI101
F1.532928528018157
sI201
F2.214372919277374
sI202
F1.6139684725142927
sI301
F1.388726046479108
sI302
F1.1819418822909327
sI303
F0.8858836247465485
sI401
F0.45719694728746374
sI402
F0.46244614995724265
sI403
F0.4108038917244384
stp648
Rp649
sI2717
g1
((dp650
I100
F1.7324947216149285
sI101
F1.7040640053930818
sI201
F2.34915054281929
sI202
F1.9274883313749083
sI301
F1.2415697987425507
sI302
F1.2088087000894165
sI303
F1.0288145987725121
sI401
F0.34264794693057815
sI402
F0.39796448618256897
sI403
F0.40253362483439215
stp651
Rp652
sI2718
g1
((dp653
I100
F1.411730701830248
sI101
F1.9040405649599221
sI201
F2.4400014565515233
sI202
F2.284032098754193
sI301
F1.0738790242925484
sI302
F1.2071534886684843
sI303
F1.1753005275447548
sI401
F0.24670796597131506
sI402
F0.33314974715175905
sI403
F0.38693291214718456
stp654
Rp655
sI2719
g1
((dp656
I100
F1.1434736137610004
sI101
F2.141375900268707
sI201
F2.4687340798529602
sI202
F2.6773866485530773
sI301
F0.8970821804233385
sI302
F1.1783555924042792
sI303
F1.3245961901527334
sI401
F0.16943032095016433
sI402
F0.2707099261804633
sI403
F0.3655615379236632
stp657
Rp658
sI2720
g1
((dp659
I100
F0.9178375669496038
sI101
F2.427926206658941
sI201
F2.420709744103737
sI202
F3.096344786544304
sI301
F0.7213079838381308
sI302
F1.1251417295705828
sI303
F1.4779215084411312
sI401
F0.10971904657499922
sI402
F0.21250352366335704
sI403
F0.3395308046481035
stp660
Rp661
sI2721
g1
((dp662
I100
F0.7271201590689359
sI101
F2.780231306663748
sI201
F2.287372991116219
sI202
F3.524599135336288
sI301
F0.5545613747058501
sI302
F1.0502380561484157
sI303
F1.6382276218099563
sI401
F0.06574362903372917
sI402
F0.15975300534486217
sI403
F0.3094091464638173
stp663
Rp664
sI2722
g1
((dp665
I100
F0.5651046577409014
sI101
F3.221839839084794
sI201
F2.0673203846879122
sI202
F3.9408982337041922
sI301
F0.4023037274498711
sI302
F0.9554497454271166
sI303
F1.809447482557043
sI401
F0.03524734427053868
sI402
F0.11326921868124959
sI403
F0.2752372870702118
stp666
Rp667
sI700
g1
((dp668
I100
F7.0
stp669
Rp670
sI701
g1
((dp671
I401
F0.25
sI201
F0.25
sI100
F4.5
sI301
F0.25
sI101
F0.25
stp672
Rp673
sI702
g1
((dp674
I100
F2.75
sI101
F0.41666666666666663
sI201
F0.41666666666666663
sI202
F0.08333333333333333
sI301
F0.41666666666666663
sI302
F0.08333333333333333
sI401
F0.25
sI402
F0.08333333333333333
stp675
Rp676
sI703
g1
((dp677
I100
F1.76
sI101
F0.64
sI201
F0.56
sI202
F0.2
sI301
F0.36
sI302
F0.2
sI303
F0.04
sI401
F0.16
sI402
F0.12
sI403
F0.04
stp678
Rp679
sI704
g1
((dp680
I100
F1.0540540540540542
sI101
F0.918918918918919
sI201
F0.6216216216216217
sI202
F0.3783783783783784
sI301
F0.2702702702702703
sI302
F0.24324324324324326
sI303
F0.13513513513513514
sI401
F0.08108108108108109
sI402
F0.10810810810810811
sI403
F0.08108108108108109
stp681
Rp682
sI705
g1
((dp683
I100
F0.6216216216216217
sI101
F1.2972972972972974
sI201
F0.5675675675675675
sI202
F0.6216216216216217
sI301
F0.13513513513513514
sI302
F0.2702702702702703
sI303
F0.24324324324324326
sI402
F0.08108108108108109
sI403
F0.10810810810810811
stp684
Rp685
sI706
g1
((dp686
I403
F0.125
sI100
F0.29166666666666663
sI101
F1.8333333333333333
sI201
F0.375
sI202
F0.875
sI302
F0.20833333333333331
sI303
F0.41666666666666663
stp687
Rp688
sI707
g1
((dp689
I202
F1.125
sI101
F2.875
sI303
F0.625
stp690
Rp691
sI708
g1
((dp692
tp693
Rp694
sI709
g1
((dp695
tp696
Rp697
sI710
g1
((dp698
tp699
Rp700
sI711
g1
((dp701
tp702
Rp703
sI712
g1
((dp704
tp705
Rp706
sI713
g1
((dp707
tp708
Rp709
sI714
g1
((dp710
tp711
Rp712
sI715
g1
((dp713
tp714
Rp715
sI2803
g1
((dp716
I100
F21.486486486486488
sI101
F0.4864864864864865
sI201
F0.5135135135135136
sI202
F0.13513513513513514
sI301
F0.5135135135135136
sI302
F0.13513513513513514
sI303
F0.02702702702702703
sI401
F0.5135135135135136
sI402
F0.13513513513513514
sI403
F0.02702702702702703
stp717
Rp718
sI2804
g1
((dp719
I100
F19.489583333333332
sI101
F0.5729166666666666
sI201
F0.6354166666666666
sI202
F0.19791666666666666
sI301
F0.6458333333333333
sI302
F0.19791666666666666
sI303
F0.05208333333333333
sI401
F0.6458333333333333
sI402
F0.19791666666666666
sI403
F0.05208333333333333
stp720
Rp721
sI2805
g1
((dp722
I100
F17.506382978723405
sI101
F0.6425531914893617
sI201
F0.7489361702127659
sI202
F0.25957446808510637
sI301
F0.774468085106383
sI302
F0.26382978723404255
sI303
F0.08085106382978724
sI401
F0.774468085106383
sI402
F0.26382978723404255
sI403
F0.08085106382978724
stp723
Rp724
sI2806
g1
((dp725
I100
F15.52087114337568
sI101
F0.7005444646098004
sI201
F0.8566243194192377
sI202
F0.3194192377495463
sI301
F0.9038112522686025
sI302
F0.33030852994555354
sI303
F0.11252268602540834
sI401
F0.9038112522686025
sI402
F0.33030852994555354
sI403
F0.11252268602540834
stp726
Rp727
sI2807
g1
((dp728
I100
F13.528
sI101
F0.7496
sI201
F0.9592
sI202
F0.3776
sI301
F1.0344
sI302
F0.39840000000000003
sI303
F0.1456
sI401
F1.0344
sI402
F0.39840000000000003
sI403
F0.1456
stp729
Rp730
sI2808
g1
((dp731
I100
F11.563656147986942
sI101
F0.7928908233587232
sI201
F1.058759521218716
sI202
F0.4348929996372869
sI301
F1.1664853101196953
sI302
F0.4689880304678999
sI303
F0.18063112078346028
sI401
F1.1523394994559304
sI402
F0.4689880304678999
sI403
F0.18063112078346028
stp732
Rp733
sI2809
g1
((dp734
I100
F9.697169971191324
sI101
F0.8356210811726825
sI201
F1.1599728859515337
sI202
F0.494661921708185
sI301
F1.298932384341637
sI302
F0.5449923741738688
sI303
F0.21911540416878494
sI401
F1.2347059820369428
sI402
F0.5383833248601931
sI403
F0.21911540416878494
stp735
Rp736
sI2810
g1
((dp737
I100
F8.011018830688267
sI101
F0.8838911273743936
sI201
F1.2689745909053534
sI202
F0.5628648959789492
sI301
F1.4261985034125484
sI302
F0.6302935613847546
sI303
F0.26445193651837845
sI401
F1.2592714414932984
sI402
F0.5991283611545104
sI403
F0.26124496340761455
stp738
Rp739
sI2811
g1
((dp740
I100
F6.558991117814648
sI101
F0.9425590749120162
sI201
F1.3909418468241999
sI202
F0.6465560583207642
sI301
F1.537958773252891
sI302
F0.726663314898609
sI303
F0.32114127702363
sI401
F1.219666499078264
sI402
F0.6416122004357299
sI403
F0.3052622758505112
stp741
Rp742
sI2812
g1
((dp743
I100
F5.35264517883857
sI101
F1.0145292170995965
sI201
F1.5287411034045062
sI202
F0.7525046466294937
sI301
F1.6219003581304683
sI302
F0.8320413436692506
sI303
F0.3931275216464935
sI401
F1.1253229974160206
sI402
F0.6598440545808967
sI403
F0.347114556416882
stp744
Rp745
sI2813
g1
((dp746
I100
F4.371036857878963
sI101
F1.1009253903990746
sI201
F1.6823834060676166
sI202
F0.8865476628634523
sI301
F1.6670434828329566
sI302
F0.9405725853094273
sI303
F0.4825174825174825
sI401
F0.9946895210053105
sI402
F0.6525974025974026
sI403
F0.38265681686734315
stp747
Rp748
sI2814
g1
((dp749
I100
F3.578654876874058
sI101
F1.202163657470299
sI201
F1.8492437901877967
sI202
F1.0537456467508088
sI301
F1.6663949745185695
sI302
F1.0441376244226541
sI303
F0.5891191411234882
sI401
F0.8467985608549246
sI402
F0.6230147948724282
sI403
F0.4087484871687208
stp750
Rp751
sI2815
g1
((dp752
I100
F2.938119893756514
sI101
F1.3187416647054209
sI201
F2.0239103878783804
sI202
F1.2586210761075434
sI301
F1.6179661320871017
sI302
F1.1341716258167187
sI303
F0.710654607806879
sI401
F0.6970491656300082
sI402
F0.5763428930056371
sI403
F0.4240325454728844
stp753
Rp754
sI2816
g1
((dp755
I100
F2.4166649303023355
sI101
F1.451907569853937
sI201
F2.197703831808805
sI202
F1.5051486675140124
sI301
F1.5247181880690934
sI302
F1.2032546413018566
sI303
F0.8434646719313232
sI401
F0.5558518950680307
sI402
F0.518383930989936
sI403
F0.4286166732648511
stp756
Rp757
sI2817
g1
((dp758
I100
F1.988004128051335
sI101
F1.6040647000521115
sI201
F2.358108453309083
sI202
F1.796220040122479
sI301
F1.393724817013566
sI302
F1.246177635634756
sI303
F0.9834401108988048
sI401
F0.42932074482035143
sI402
F0.45430703573897907
sI403
F0.42368384303868173
stp759
Rp760
sI2818
g1
((dp761
I100
F1.6321206016529128
sI101
F1.7792286200980165
sI201
F2.488903058474182
sI202
F2.132655041446037
sI301
F1.2349563669183308
sI302
F1.2604739418246114
sI303
F1.1270334124981902
sI401
F0.3203897252024556
sI402
F0.38827436013541194
sI403
F0.41087176833344113
stp762
Rp763
sI2819
g1
((dp764
I100
F1.3341892963175974
sI101
F1.9834579453779553
sI201
F2.571622650894564
sI202
F2.5119145695055414
sI301
F1.0597391696330032
sI302
F1.2463743335457698
sI303
F1.272127834859248
sI401
F0.22992243483126856
sI402
F0.3233519344659817
sI403
F0.391864206550293
stp765
Rp766
sI2820
g1
((dp767
I100
F1.0832899881464184
sI101
F2.2255011234364774
sI201
F2.588351644463316
sI202
F2.9269536294959577
sI301
F0.8791960794720733
sI302
F1.2061674008810572
sI303
F1.4185906622083047
sI401
F0.1574615643189498
sI402
F0.26169170072359926
sI403
F0.3680307131610141
stp768
Rp769
sI2821
g1
((dp770
I100
F0.8712043137399242
sI101
F2.5176533917332256
sI201
F2.5250423276528395
sI202
F3.365540689756708
sI301
F0.702841473738452
sI302
F1.1431870882255513
sI303
F1.568336155176856
sI401
F0.10171058927454084
sI402
F0.20474161728440504
sI403
F0.3402683205123486
stp771
Rp772
sI2822
g1
((dp773
I100
F0.6914345616617145
sI101
F2.877294437810669
sI201
F2.3740454305628838
sI202
F3.81010663408403
sI301
F0.537835661325706
sI302
F1.0605370581211297
sI303
F1.72498680958596
sI401
F0.060807808725111774
sI402
F0.15347393851878594
sI403
F0.30894032378995306
stp774
Rp775
sI800
g1
((dp776
I100
F8.0
stp777
Rp778
sI801
g1
((dp779
I401
F0.25
sI201
F0.25
sI100
F5.5
sI301
F0.25
sI101
F0.25
stp780
Rp781
sI802
g1
((dp782
I100
F3.4615384615384617
sI101
F0.38461538461538464
sI201
F0.38461538461538464
sI202
F0.07692307692307693
sI301
F0.38461538461538464
sI302
F0.07692307692307693
sI401
F0.38461538461538464
sI402
F0.07692307692307693
stp783
Rp784
sI803
g1
((dp785
I100
F2.3
sI101
F0.5666666666666667
sI201
F0.5666666666666667
sI202
F0.16666666666666666
sI301
F0.4
sI302
F0.16666666666666666
sI303
F0.03333333333333333
sI401
F0.26666666666666666
sI402
F0.16666666666666666
sI403
F0.03333333333333333
stp786
Rp787
sI804
g1
((dp788
I100
F1.4615384615384617
sI101
F0.7884615384615385
sI201
F0.6923076923076923
sI202
F0.3269230769230769
sI301
F0.34615384615384615
sI302
F0.23076923076923078
sI303
F0.09615384615384616
sI401
F0.17307692307692307
sI402
F0.15384615384615385
sI403
F0.09615384615384616
stp789
Rp790
sI805
g1
((dp791
I100
F0.9230769230769231
sI101
F1.0923076923076924
sI201
F0.7538461538461538
sI202
F0.5538461538461539
sI301
F0.23076923076923078
sI302
F0.27692307692307694
sI303
F0.18461538461538463
sI401
F0.06153846153846154
sI402
F0.13846153846153847
sI403
F0.12307692307692308
stp792
Rp793
sI806
g1
((dp794
I100
F0.5344827586206896
sI101
F1.4655172413793103
sI201
F0.6724137931034483
sI202
F0.8448275862068966
sI301
F0.12068965517241378
sI302
F0.25862068965517243
sI303
F0.3103448275862069
sI402
F0.06896551724137931
sI403
F0.15517241379310345
stp795
Rp796
sI807
g1
((dp797
I403
F0.12121212121212122
sI100
F0.24242424242424243
sI101
F2.0606060606060606
sI201
F0.42424242424242425
sI202
F1.1818181818181819
sI302
F0.21212121212121213
sI303
F0.4545454545454546
stp798
Rp799
sI808
g1
((dp800
I202
F1.4000000000000001
sI101
F3.1
sI303
F0.7000000000000001
stp801
Rp802
sI809
g1
((dp803
tp804
Rp805
sI810
g1
((dp806
tp807
Rp808
sI811
g1
((dp809
tp810
Rp811
sI812
g1
((dp812
tp813
Rp814
sI813
g1
((dp815
tp816
Rp817
sI814
g1
((dp818
tp819
Rp820
sI815
g1
((dp821
tp822
Rp823
sI816
g1
((dp824
tp825
Rp826
sI900
g1
((dp827
I100
F9.0
stp828
Rp829
sI901
g1
((dp830
I401
F0.25
sI201
F0.25
sI100
F6.5
sI301
F0.25
sI101
F0.25
stp831
Rp832
sI902
g1
((dp833
I100
F4.461538461538462
sI101
F0.38461538461538464
sI201
F0.38461538461538464
sI202
F0.07692307692307693
sI301
F0.38461538461538464
sI302
F0.07692307692307693
sI401
F0.38461538461538464
sI402
F0.07692307692307693
stp834
Rp835
sI903
g1
((dp836
I100
F3.0
sI101
F0.5454545454545454
sI201
F0.5454545454545454
sI202
F0.15151515151515152
sI301
F0.48484848484848486
sI302
F0.15151515151515152
sI303
F0.030303030303030304
sI401
F0.33333333333333337
sI402
F0.15151515151515152
sI403
F0.030303030303030304
stp837
Rp838
sI904
g1
((dp839
I100
F2.0
sI101
F0.734375
sI201
F0.6875
sI202
F0.28125
sI301
F0.46875
sI302
F0.25
sI303
F0.078125
sI401
F0.234375
sI402
F0.171875
sI403
F0.078125
stp840
Rp841
sI905
g1
((dp842
I100
F1.3157894736842104
sI101
F0.9789473684210526
sI201
F0.7789473684210526
sI202
F0.4631578947368421
sI301
F0.3894736842105263
sI302
F0.3157894736842105
sI303
F0.16842105263157894
sI401
F0.12631578947368421
sI402
F0.15789473684210525
sI403
F0.11578947368421053
stp843
Rp844
sI906
g1
((dp845
I100
F0.8476190476190477
sI101
F1.2952380952380953
sI201
F0.7714285714285715
sI202
F0.7047619047619048
sI301
F0.2571428571428572
sI302
F0.3523809523809524
sI303
F0.28571428571428575
sI401
F0.04761904761904762
sI402
F0.1142857142857143
sI403
F0.14285714285714288
stp846
Rp847
sI907
g1
((dp848
I100
F0.49397590361445787
sI101
F1.7228915662650603
sI201
F0.6506024096385542
sI202
F0.9759036144578314
sI301
F0.13253012048192772
sI302
F0.3253012048192771
sI303
F0.44578313253012053
sI402
F0.060240963855421686
sI403
F0.14457831325301207
stp849
Rp850
sI908
g1
((dp851
I403
F0.11627906976744186
sI100
F0.23255813953488372
sI101
F2.3488372093023258
sI201
F0.3953488372093023
sI202
F1.255813953488372
sI302
F0.2558139534883721
sI303
F0.627906976744186
stp852
Rp853
sI909
g1
((dp854
I202
F1.4166666666666665
sI101
F3.4166666666666665
sI303
F0.9166666666666666
stp855
Rp856
sI910
g1
((dp857
tp858
Rp859
sI911
g1
((dp860
tp861
Rp862
sI912
g1
((dp863
tp864
Rp865
sI913
g1
((dp866
tp867
Rp868
sI914
g1
((dp869
tp870
Rp871
sI915
g1
((dp872
tp873
Rp874
sI916
g1
((dp875
tp876
Rp877
sI1000
g1
((dp878
I100
F10.0
stp879
Rp880
sI1001
g1
((dp881
I401
F0.25
sI201
F0.25
sI100
F7.5
sI301
F0.25
sI101
F0.25
stp882
Rp883
sI1002
g1
((dp884
I100
F5.461538461538462
sI101
F0.38461538461538464
sI201
F0.38461538461538464
sI202
F0.07692307692307693
sI301
F0.38461538461538464
sI302
F0.07692307692307693
sI401
F0.38461538461538464
sI402
F0.07692307692307693
stp885
Rp886
sI1003
g1
((dp887
I100
F3.7714285714285714
sI101
F0.5142857142857142
sI201
F0.5428571428571428
sI202
F0.14285714285714285
sI301
F0.5142857142857142
sI302
F0.14285714285714285
sI303
F0.02857142857142857
sI401
F0.39999999999999997
sI402
F0.14285714285714285
sI403
F0.02857142857142857
stp888
Rp889
sI1004
g1
((dp890
I100
F2.56
sI101
F0.68
sI201
F0.6933333333333334
sI202
F0.25333333333333335
sI301
F0.5333333333333333
sI302
F0.24000000000000002
sI303
F0.06666666666666667
sI401
F0.33333333333333337
sI402
F0.18666666666666668
sI403
F0.06666666666666667
stp891
Rp892
sI1005
g1
((dp893
I100
F1.7322834645669292
sI101
F0.8740157480314961
sI201
F0.8267716535433071
sI202
F0.4094488188976378
sI301
F0.48031496062992124
sI302
F0.31496062992125984
sI303
F0.14173228346456693
sI401
F0.2204724409448819
sI402
F0.19685039370078738
sI403
F0.11023622047244094
stp894
Rp895
sI1006
g1
((dp896
I100
F1.1616766467065869
sI101
F1.125748502994012
sI201
F0.8982035928143713
sI202
F0.62874251497006
sI301
F0.36526946107784436
sI302
F0.36526946107784436
sI303
F0.23952095808383234
sI401
F0.11976047904191617
sI402
F0.16766467065868265
sI403
F0.14970059880239522
stp897
Rp898
sI1007
g1
((dp899
I100
F0.746987951807229
sI101
F1.4518072289156627
sI201
F0.8795180722891567
sI202
F0.9036144578313253
sI301
F0.23493975903614459
sI302
F0.3674698795180723
sI303
F0.3674698795180723
sI401
F0.042168674698795185
sI402
F0.12048192771084337
sI403
F0.16867469879518074
stp900
Rp901
sI1008
g1
((dp902
I100
F0.4453781512605042
sI101
F1.8991596638655461
sI201
F0.7226890756302521
sI202
F1.2268907563025209
sI301
F0.1092436974789916
sI302
F0.3277310924369748
sI303
F0.5126050420168067
sI402
F0.058823529411764705
sI403
F0.1680672268907563
stp903
Rp904
sI1009
g1
((dp905
I403
F0.125
sI100
F0.21428571428571427
sI101
F2.571428571428571
sI201
F0.42857142857142855
sI202
F1.5357142857142856
sI302
F0.23214285714285712
sI303
F0.6964285714285714
stp906
Rp907
sI1010
g1
((dp908
I202
F1.7142857142857142
sI101
F3.7857142857142856
sI303
F0.9285714285714285
stp909
Rp910
sI1011
g1
((dp911
tp912
Rp913
sI1012
g1
((dp914
tp915
Rp916
sI1013
g1
((dp917
tp918
Rp919
sI1014
g1
((dp920
tp921
Rp922
sI1015
g1
((dp923
tp924
Rp925
sI1016
g1
((dp926
tp927
Rp928
sI1100
g1
((dp929
I100
F11.0
stp930
Rp931
sI1101
g1
((dp932
I401
F0.25
sI201
F0.25
sI100
F8.5
sI301
F0.25
sI101
F0.25
stp933
Rp934
sI1102
g1
((dp935
I100
F6.461538461538462
sI101
F0.38461538461538464
sI201
F0.38461538461538464
sI202
F0.07692307692307693
sI301
F0.38461538461538464
sI302
F0.07692307692307693
sI401
F0.38461538461538464
sI402
F0.07692307692307693
stp936
Rp937
sI1103
g1
((dp938
I100
F4.638888888888888
sI101
F0.5
sI201
F0.5277777777777778
sI202
F0.1388888888888889
sI301
F0.5277777777777778
sI302
F0.1388888888888889
sI303
F0.027777777777777776
sI401
F0.4444444444444444
sI402
F0.1388888888888889
sI403
F0.027777777777777776
stp939
Rp940
sI1104
g1
((dp941
I100
F3.25609756097561
sI101
F0.6463414634146342
sI201
F0.6829268292682927
sI202
F0.23170731707317074
sI301
F0.5853658536585367
sI302
F0.23170731707317074
sI303
F0.06097560975609756
sI401
F0.4024390243902439
sI402
F0.1951219512195122
sI403
F0.06097560975609756
stp942
Rp943
sI1105
g1
((dp944
I100
F2.2679738562091503
sI101
F0.823529411764706
sI201
F0.823529411764706
sI202
F0.36601307189542487
sI301
F0.5686274509803921
sI302
F0.3137254901960784
sI303
F0.12418300653594772
sI401
F0.30718954248366015
sI402
F0.21568627450980393
sI403
F0.10457516339869281
stp945
Rp946
sI1106
g1
((dp947
I100
F1.5833333333333333
sI101
F1.043859649122807
sI201
F0.9342105263157894
sI202
F0.5526315789473684
sI301
F0.48245614035087714
sI302
F0.381578947368421
sI303
F0.21052631578947367
sI401
F0.19298245614035087
sI402
F0.20614035087719296
sI403
F0.14473684210526316
stp948
Rp949
sI1107
g1
((dp950
I100
F1.0820895522388059
sI101
F1.3246268656716418
sI201
F0.9701492537313433
sI202
F0.7947761194029851
sI301
F0.3656716417910448
sI302
F0.41044776119402987
sI303
F0.3246268656716418
sI401
F0.10074626865671642
sI402
F0.16417910447761194
sI403
F0.17537313432835822
stp951
Rp952
sI1108
g1
((dp953
I100
F0.7166666666666667
sI101
F1.6958333333333333
sI201
F0.9083333333333333
sI202
F1.0833333333333333
sI301
F0.22916666666666666
sI302
F0.4083333333333333
sI303
F0.4583333333333333
sI401
F0.03333333333333333
sI402
F0.1125
sI403
F0.18333333333333332
stp954
Rp955
sI1109
g1
((dp956
I100
F0.43312101910828027
sI101
F2.1974522292993632
sI201
F0.7261146496815287
sI202
F1.388535031847134
sI301
F0.10828025477707007
sI302
F0.35031847133757965
sI303
F0.624203821656051
sI402
F0.050955414012738856
sI403
F0.17197452229299365
stp957
Rp958
sI1110
g1
((dp959
I403
F0.11764705882352941
sI100
F0.20588235294117646
sI101
F2.941176470588235
sI201
F0.4264705882352941
sI202
F1.6764705882352942
sI302
F0.25
sI303
F0.8088235294117647
stp960
Rp961
sI1111
g1
((dp962
I202
F1.8125
sI101
F4.1875
sI303
F1.0625
stp963
Rp964
sI1112
g1
((dp965
tp966
Rp967
sI1113
g1
((dp968
tp969
Rp970
sI1114
g1
((dp971
tp972
Rp973
sI1115
g1
((dp974
tp975
Rp976
sI1116
g1
((dp977
tp978
Rp979
sI1117
g1
((dp980
tp981
Rp982
sI1200
g1
((dp983
I100
F12.0
stp984
Rp985
sI1201
g1
((dp986
I401
F0.25
sI201
F0.25
sI100
F9.5
sI301
F0.25
sI101
F0.25
stp987
Rp988
sI1202
g1
((dp989
I100
F7.461538461538462
sI101
F0.38461538461538464
sI201
F0.38461538461538464
sI202
F0.07692307692307693
sI301
F0.38461538461538464
sI302
F0.07692307692307693
sI401
F0.38461538461538464
sI402
F0.07692307692307693
stp990
Rp991
sI1203
g1
((dp992
I100
F5.486486486486487
sI101
F0.4864864864864865
sI201
F0.5135135135135136
sI202
F0.13513513513513514
sI301
F0.5135135135135136
sI302
F0.13513513513513514
sI303
F0.02702702702702703
sI401
F0.5135135135135136
sI402
F0.13513513513513514
sI403
F0.02702702702702703
stp993
Rp994
sI1204
g1
((dp995
I100
F3.9213483146067416
sI101
F0.6067415730337078
sI201
F0.6629213483146067
sI202
F0.21348314606741572
sI301
F0.6179775280898876
sI302
F0.21348314606741572
sI303
F0.056179775280898875
sI401
F0.4943820224719101
sI402
F0.21348314606741572
sI403
F0.056179775280898875
stp996
Rp997
sI1205
g1
((dp998
I100
F2.7777777777777777
sI101
F0.75
sI201
F0.8111111111111111
sI202
F0.3277777777777778
sI301
F0.638888888888889
sI302
F0.3055555555555556
sI303
F0.10555555555555556
sI401
F0.41111111111111115
sI402
F0.24444444444444446
sI403
F0.10555555555555556
stp999
Rp1000
sI1206
g1
((dp1001
I100
F1.9698996655518395
sI101
F0.9331103678929765
sI201
F0.9498327759197325
sI202
F0.4882943143812709
sI301
F0.5953177257525083
sI302
F0.3846153846153846
sI303
F0.18394648829431437
sI401
F0.28762541806020064
sI402
F0.24749163879598662
sI403
F0.1471571906354515
stp1002
Rp1003
sI1207
g1
((dp1004
I100
F1.3846153846153846
sI101
F1.1563275434243176
sI201
F1.0471464019851116
sI202
F0.7047146401985112
sI301
F0.49379652605459057
sI302
F0.44168734491315137
sI303
F0.2853598014888337
sI401
F0.1761786600496278
sI402
F0.21339950372208435
sI403
F0.18362282878411912
stp1005
Rp1006
sI1208
g1
((dp1007
I100
F0.9537037037037036
sI101
F1.4421296296296295
sI201
F1.0694444444444444
sI202
F0.9768518518518517
sI301
F0.3657407407407407
sI302
F0.46064814814814814
sI303
F0.41203703703703703
sI401
F0.08564814814814814
sI402
F0.16435185185185183
sI403
F0.19907407407407407
stp1008
Rp1009
sI1209
g1
((dp1010
I100
F0.6302521008403361
sI101
F1.8123249299719888
sI201
F0.9831932773109244
sI202
F1.2941176470588236
sI301
F0.226890756302521
sI302
F0.4425770308123249
sI303
F0.5574229691876751
sI401
F0.028011204481792718
sI402
F0.10364145658263306
sI403
F0.1988795518207283
stp1011
Rp1012
sI1210
g1
((dp1013
I100
F0.3796296296296296
sI101
F2.324074074074074
sI201
F0.7685185185185185
sI202
F1.625
sI301
F0.10648148148148148
sI302
F0.375
sI303
F0.7314814814814814
sI402
F0.046296296296296294
sI403
F0.17129629629629628
stp1014
Rp1015
sI1211
g1
((dp1016
I403
F0.11494252873563218
sI100
F0.1839080459770115
sI101
F3.0804597701149423
sI201
F0.4367816091954023
sI202
F1.9080459770114941
sI302
F0.26436781609195403
sI303
F0.9310344827586207
stp1017
Rp1018
sI1212
g1
((dp1019
I202
F2.0
sI101
F4.368421052631579
sI303
F1.2105263157894737
stp1020
Rp1021
sI1213
g1
((dp1022
tp1023
Rp1024
sI1214
g1
((dp1025
tp1026
Rp1027
sI1215
g1
((dp1028
tp1029
Rp1030
sI1216
g1
((dp1031
tp1032
Rp1033
sI1217
g1
((dp1034
tp1035
Rp1036
sI1300
g1
((dp1037
I100
F13.0
stp1038
Rp1039
sI1301
g1
((dp1040
I401
F0.25
sI201
F0.25
sI100
F10.5
sI301
F0.25
sI101
F0.25
stp1041
Rp1042
sI1302
g1
((dp1043
I100
F8.461538461538462
sI101
F0.38461538461538464
sI201
F0.38461538461538464
sI202
F0.07692307692307693
sI301
F0.38461538461538464
sI302
F0.07692307692307693
sI401
F0.38461538461538464
sI402
F0.07692307692307693
stp1044
Rp1045
sI1303
g1
((dp1046
I100
F6.486486486486487
sI101
F0.4864864864864865
sI201
F0.5135135135135136
sI202
F0.13513513513513514
sI301
F0.5135135135135136
sI302
F0.13513513513513514
sI303
F0.02702702702702703
sI401
F0.5135135135135136
sI402
F0.13513513513513514
sI403
F0.02702702702702703
stp1047
Rp1048
sI1304
g1
((dp1049
I100
F4.760869565217392
sI101
F0.5978260869565217
sI201
F0.6521739130434783
sI202
F0.20652173913043478
sI301
F0.6413043478260869
sI302
F0.20652173913043478
sI303
F0.05434782608695652
sI401
F0.5434782608695652
sI402
F0.20652173913043478
sI403
F0.05434782608695652
stp1050
Rp1051
sI1305
g1
((dp1052
I100
F3.4517766497461926
sI101
F0.7258883248730964
sI201
F0.7969543147208121
sI202
F0.3045685279187817
sI301
F0.700507614213198
sI302
F0.299492385786802
sI303
F0.09644670050761421
sI401
F0.482233502538071
sI402
F0.25380710659898476
sI403
F0.09644670050761421
stp1053
Rp1054
sI1306
g1
((dp1055
I100
F2.49438202247191
sI101
F0.8848314606741573
sI201
F0.9410112359550562
sI202
F0.44101123595505615
sI301
F0.6910112359550562
sI302
F0.38764044943820225
sI303
F0.16573033707865167
sI401
F0.3735955056179775
sI402
F0.26685393258426965
sI403
F0.1404494382022472
stp1056
Rp1057
sI1307
g1
((dp1058
I100
F1.799625468164794
sI101
F1.0823970037453183
sI201
F1.0617977528089888
sI202
F0.6273408239700374
sI301
F0.6161048689138577
sI302
F0.4606741573033708
sI303
F0.25842696629213485
sI401
F0.2565543071161049
sI402
F0.24906367041198502
sI403
F0.17790262172284643
stp1059
Rp1060
sI1308
g1
((dp1061
I100
F1.2885496183206107
sI101
F1.3267175572519083
sI201
F1.131297709923664
sI202
F0.8656488549618321
sI301
F0.49923664122137407
sI302
F0.5022900763358779
sI303
F0.37557251908396944
sI401
F0.15267175572519084
sI402
F0.20916030534351146
sI403
F0.20305343511450383
stp1062
Rp1063
sI1309
g1
((dp1064
I100
F0.9051321928460342
sI101
F1.640746500777605
sI201
F1.1166407465007775
sI202
F1.1524105754276828
sI301
F0.3608087091757387
sI302
F0.5085536547433903
sI303
F0.5116640746500778
sI401
F0.07465007776049767
sI402
F0.15552099533437014
sI403
F0.2130637636080871
stp1065
Rp1066
sI1310
g1
((dp1067
I100
F0.6094069529652353
sI101
F2.0531697341513295
sI201
F1.0
sI202
F1.4683026584867076
sI301
F0.2208588957055215
sI302
F0.474437627811861
sI303
F0.6687116564417178
sI401
F0.0245398773006135
sI402
F0.098159509202454
sI403
F0.2044989775051125
stp1068
Rp1069
sI1311
g1
((dp1070
I100
F0.3759124087591241
sI101
F2.6204379562043796
sI201
F0.7700729927007299
sI202
F1.7846715328467153
sI301
F0.09854014598540145
sI302
F0.3941605839416058
sI303
F0.8467153284671532
sI402
F0.043795620437956206
sI403
F0.17518248175182483
stp1071
Rp1072
sI1312
g1
((dp1073
I403
F0.11650485436893203
sI100
F0.1844660194174757
sI101
F3.4466019417475726
sI201
F0.4368932038834951
sI202
F2.0485436893203883
sI302
F0.2621359223300971
sI303
F1.0485436893203883
stp1074
Rp1075
sI1313
g1
((dp1076
I202
F2.142857142857143
sI101
F4.857142857142857
sI303
F1.2857142857142856
stp1077
Rp1078
sI1314
g1
((dp1079
tp1080
Rp1081
sI1315
g1
((dp1082
tp1083
Rp1084
sI1316
g1
((dp1085
tp1086
Rp1087
sI1317
g1
((dp1088
tp1089
Rp1090
sI1400
g1
((dp1091
I100
F14.0
stp1092
Rp1093
sI1401
g1
((dp1094
I401
F0.25
sI201
F0.25
sI100
F11.5
sI301
F0.25
sI101
F0.25
stp1095
Rp1096
sI1402
g1
((dp1097
I100
F9.461538461538462
sI101
F0.38461538461538464
sI201
F0.38461538461538464
sI202
F0.07692307692307693
sI301
F0.38461538461538464
sI302
F0.07692307692307693
sI401
F0.38461538461538464
sI402
F0.07692307692307693
stp1098
Rp1099
sI1403
g1
((dp1100
I100
F7.486486486486487
sI101
F0.4864864864864865
sI201
F0.5135135135135136
sI202
F0.13513513513513514
sI301
F0.5135135135135136
sI302
F0.13513513513513514
sI303
F0.02702702702702703
sI401
F0.5135135135135136
sI402
F0.13513513513513514
sI403
F0.02702702702702703
stp1101
Rp1102
sI1404
g1
((dp1103
I100
F5.638297872340425
sI101
F0.5851063829787234
sI201
F0.648936170212766
sI202
F0.20212765957446807
sI301
F0.648936170212766
sI302
F0.20212765957446807
sI303
F0.05319148936170213
sI401
F0.5851063829787234
sI402
F0.20212765957446807
sI403
F0.05319148936170213
stp1104
Rp1105
sI1405
g1
((dp1106
I100
F4.156398104265403
sI101
F0.6966824644549764
sI201
F0.7914691943127963
sI202
F0.28909952606635075
sI301
F0.7298578199052134
sI302
F0.28909952606635075
sI303
F0.09004739336492892
sI401
F0.5639810426540285
sI402
F0.26066350710900477
sI403
F0.09004739336492892
stp1107
Rp1108
sI1406
g1
((dp1109
I100
F3.041564792176039
sI101
F0.8312958435207823
sI201
F0.941320293398533
sI202
F0.4083129584352078
sI301
F0.7506112469437652
sI302
F0.3765281173594132
sI303
F0.1491442542787286
sI401
F0.4743276283618582
sI402
F0.29095354523227385
sI403
F0.13447432762836187
stp1110
Rp1111
sI1407
g1
((dp1112
I100
F2.224702380952381
sI101
F0.9985119047619047
sI201
F1.0848214285714286
sI202
F0.5729166666666666
sI301
F0.7038690476190476
sI302
F0.4568452380952381
sI303
F0.22916666666666666
sI401
F0.3571428571428571
sI402
F0.28869047619047616
sI403
F0.17708333333333331
stp1113
Rp1114
sI1408
g1
((dp1115
I100
F1.6222943722943723
sI101
F1.2034632034632036
sI201
F1.2002164502164503
sI202
F0.788961038961039
sI301
F0.6093073593073594
sI302
F0.5119047619047619
sI303
F0.33225108225108224
sI401
F0.23917748917748918
sI402
F0.2597402597402597
sI403
F0.20995670995670995
stp1116
Rp1117
sI1409
g1
((dp1118
I100
F1.1711281070745698
sI101
F1.4569789674952198
sI201
F1.2581261950286806
sI202
F1.060229445506692
sI301
F0.4808795411089866
sI302
F0.5382409177820268
sI303
F0.4521988527724665
sI401
F0.1395793499043977
sI402
F0.21128107074569788
sI403
F0.2294455066921606
stp1119
Rp1120
sI1410
g1
((dp1121
I100
F0.8249475890985325
sI101
F1.779874213836478
sI201
F1.2264150943396228
sI202
F1.379454926624738
sI301
F0.3427672955974843
sI302
F0.5272536687631028
sI303
F0.590146750524109
sI401
F0.0660377358490566
sI402
F0.1530398322851153
sI403
F0.23165618448637318
stp1122
Rp1123
sI1411
g1
((dp1124
I100
F0.5568685376661744
sI101
F2.205317577548006
sI201
F1.0827178729689808
sI202
F1.7282127031019203
sI301
F0.206794682422452
sI302
F0.48301329394387005
sI303
F0.7429837518463811
sI401
F0.020679468242245203
sI402
F0.0930576070901034
sI403
F0.21565731166912852
stp1125
Rp1126
sI1412
g1
((dp1127
I100
F0.34366197183098596
sI101
F2.794366197183099
sI201
F0.819718309859155
sI202
F2.064788732394366
sI301
F0.09295774647887324
sI302
F0.3943661971830986
sI303
F0.9211267605633803
sI402
F0.03943661971830986
sI403
F0.17746478873239438
stp1128
Rp1129
sI1413
g1
((dp1130
I403
F0.112
sI100
F0.168
sI101
F3.664
sI201
F0.456
sI202
F2.328
sI302
F0.264
sI303
F1.12
stp1131
Rp1132
sI1414
g1
((dp1133
I202
F2.375
sI101
F5.125
sI303
F1.375
stp1134
Rp1135
sI1415
g1
((dp1136
tp1137
Rp1138
sI1416
g1
((dp1139
tp1140
Rp1141
sI1417
g1
((dp1142
tp1143
Rp1144
sI1418
g1
((dp1145
tp1146
Rp1147
sI1500
g1
((dp1148
I100
F15.0
stp1149
Rp1150
sI1501
g1
((dp1151
I401
F0.25
sI201
F0.25
sI100
F12.5
sI301
F0.25
sI101
F0.25
stp1152
Rp1153
sI1502
g1
((dp1154
I100
F10.461538461538462
sI101
F0.38461538461538464
sI201
F0.38461538461538464
sI202
F0.07692307692307693
sI301
F0.38461538461538464
sI302
F0.07692307692307693
sI401
F0.38461538461538464
sI402
F0.07692307692307693
stp1155
Rp1156
sI1503
g1
((dp1157
I100
F8.486486486486488
sI101
F0.4864864864864865
sI201
F0.5135135135135136
sI202
F0.13513513513513514
sI301
F0.5135135135135136
sI302
F0.13513513513513514
sI303
F0.02702702702702703
sI401
F0.5135135135135136
sI402
F0.13513513513513514
sI403
F0.02702702702702703
stp1158
Rp1159
sI1504
g1
((dp1160
I100
F6.568421052631579
sI101
F0.5789473684210527
sI201
F0.6421052631578947
sI202
F0.19999999999999998
sI301
F0.6526315789473685
sI302
F0.19999999999999998
sI303
F0.05263157894736842
sI401
F0.6105263157894737
sI402
F0.19999999999999998
sI403
F0.05263157894736842
stp1161
Rp1162
sI1505
g1
((dp1163
I100
F4.945454545454545
sI101
F0.6772727272727272
sI201
F0.7772727272727272
sI202
F0.2772727272727273
sI301
F0.7636363636363636
sI302
F0.2818181818181818
sI303
F0.08636363636363636
sI401
F0.6181818181818182
sI402
F0.2636363636363636
sI403
F0.08636363636363636
stp1164
Rp1165
sI1506
g1
((dp1166
I100
F3.6733333333333333
sI101
F0.7955555555555556
sI201
F0.92
sI202
F0.38
sI301
F0.82
sI302
F0.37333333333333335
sI303
F0.13777777777777778
sI401
F0.5533333333333333
sI402
F0.3022222222222222
sI403
F0.1288888888888889
stp1167
Rp1168
sI1507
g1
((dp1169
I100
F2.722361809045226
sI101
F0.9409547738693468
sI201
F1.065326633165829
sI202
F0.5201005025125628
sI301
F0.8128140703517588
sI302
F0.4635678391959799
sI303
F0.21105527638190955
sI401
F0.44221105527638194
sI402
F0.3128140703517588
sI403
F0.1708542713567839
stp1170
Rp1171
sI1508
g1
((dp1172
I100
F2.0174854288093256
sI101
F1.1182348043297252
sI201
F1.1956702747710242
sI202
F0.7060782681099085
sI301
F0.7452123230641132
sI302
F0.5387177352206495
sI303
F0.30724396336386345
sI401
F0.32139883430474603
sI402
F0.29308909242298087
sI403
F0.2073272273105745
stp1173
Rp1174
sI1509
g1
((dp1175
I100
F1.4901574803149606
sI101
F1.3359580052493438
sI201
F1.2880577427821522
sI202
F0.9422572178477691
sI301
F0.634514435695538
sI302
F0.5872703412073491
sI303
F0.42454068241469817
sI401
F0.20931758530183728
sI402
F0.2532808398950131
sI403
F0.23097112860892388
stp1176
Rp1177
sI1510
g1
((dp1178
I100
F1.088125
sI101
F1.60625
sI201
F1.31375
sI202
F1.226875
sI301
F0.496875
sI302
F0.604375
sI303
F0.5593750000000001
sI401
F0.12
sI402
F0.199375
sI403
F0.24125
stp1179
Rp1180
sI1511
g1
((dp1181
I100
F0.7761413843888071
sI101
F1.9528718703976435
sI201
F1.2488954344624448
sI202
F1.5478645066273933
sI301
F0.3519882179675994
sI302
F0.585419734904271
sI303
F0.7120765832106039
sI401
F0.05596465390279823
sI402
F0.14138438880706922
sI403
F0.2349042709867452
stp1182
Rp1183
sI1512
g1
((dp1184
I100
F0.5294117647058824
sI101
F2.408435072142064
sI201
F1.0810210876803552
sI202
F1.8823529411764706
sI301
F0.21198668146503885
sI302
F0.5305216426193119
sI303
F0.8823529411764706
sI401
F0.017758046614872364
sI402
F0.08435072142064373
sI403
F0.2130965593784684
stp1185
Rp1186
sI1513
g1
((dp1187
I100
F0.3288288288288288
sI101
F3.0337837837837838
sI201
F0.8085585585585585
sI202
F2.1936936936936937
sI301
F0.0945945945945946
sI302
F0.43018018018018017
sI303
F1.0765765765765765
sI402
F0.036036036036036036
sI403
F0.17117117117117117
stp1188
Rp1189
sI1514
g1
((dp1190
I403
F0.10810810810810811
sI100
F0.16216216216216217
sI101
F3.9391891891891895
sI201
F0.44594594594594594
sI202
F2.425675675675676
sI302
F0.28378378378378377
sI303
F1.2905405405405406
stp1191
Rp1192
sI1515
g1
((dp1193
I202
F2.444444444444444
sI101
F5.444444444444444
sI303
F1.5555555555555554
stp1194
Rp1195
sI1516
g1
((dp1196
tp1197
Rp1198
sI1517
g1
((dp1199
tp1200
Rp1201
sI1518
g1
((dp1202
tp1203
Rp1204
sI1600
g1
((dp1205
I100
F16.0
stp1206
Rp1207
sI1601
g1
((dp1208
I401
F0.25
sI201
F0.25
sI100
F13.5
sI301
F0.25
sI101
F0.25
stp1209
Rp1210
sI1602
g1
((dp1211
I100
F11.461538461538462
sI101
F0.38461538461538464
sI201
F0.38461538461538464
sI202
F0.07692307692307693
sI301
F0.38461538461538464
sI302
F0.07692307692307693
sI401
F0.38461538461538464
sI402
F0.07692307692307693
stp1212
Rp1213
sI1603
g1
((dp1214
I100
F9.486486486486488
sI101
F0.4864864864864865
sI201
F0.5135135135135136
sI202
F0.13513513513513514
sI301
F0.5135135135135136
sI302
F0.13513513513513514
sI303
F0.02702702702702703
sI401
F0.5135135135135136
sI402
F0.13513513513513514
sI403
F0.02702702702702703
stp1215
Rp1216
sI1604
g1
((dp1217
I100
F7.489583333333333
sI101
F0.5729166666666666
sI201
F0.6354166666666666
sI202
F0.19791666666666666
sI301
F0.6458333333333333
sI302
F0.19791666666666666
sI303
F0.05208333333333333
sI401
F0.6458333333333333
sI402
F0.19791666666666666
sI403
F0.05208333333333333
stp1218
Rp1219
sI1605
g1
((dp1220
I100
F5.7368421052631575
sI101
F0.6578947368421052
sI201
F0.763157894736842
sI202
F0.2675438596491228
sI301
F0.7675438596491228
sI302
F0.27192982456140347
sI303
F0.08333333333333333
sI401
F0.6885964912280701
sI402
F0.27192982456140347
sI403
F0.08333333333333333
stp1221
Rp1222
sI1606
g1
((dp1223
I100
F4.318275154004107
sI101
F0.7577002053388091
sI201
F0.9014373716632443
sI202
F0.35728952772073924
sI301
F0.8480492813141685
sI302
F0.3593429158110883
sI303
F0.1273100616016427
sI401
F0.6509240246406571
sI402
F0.32238193018480493
sI403
F0.1273100616016427
stp1224
Rp1225
sI1607
g1
((dp1226
I100
F3.2382513661202186
sI101
F0.8830601092896175
sI201
F1.0502732240437158
sI202
F0.47978142076502733
sI301
F0.8732240437158469
sI302
F0.45136612021857925
sI303
F0.1912568306010929
sI401
F0.5497267759562842
sI402
F0.346448087431694
sI403
F0.17158469945355193
stp1227
Rp1228
sI1608
g1
((dp1229
I100
F2.430583501006036
sI101
F1.0362173038229376
sI201
F1.1978537894030852
sI202
F0.6445338698859826
sI301
F0.8363514419852448
sI302
F0.5358819584171697
sI303
F0.27699530516431925
sI401
F0.42521797451374915
sI402
F0.33735747820254863
sI403
F0.21260898725687458
stp1230
Rp1231
sI1609
g1
((dp1232
I100
F1.8236424795771264
sI101
F1.2224891878904374
sI201
F1.3272465160980298
sI202
F0.8582412301777992
sI301
F0.7481979817395483
sI302
F0.5992311388755406
sI303
F0.38395002402691014
sI401
F0.3008169149447381
sI402
F0.3046612205670351
sI403
F0.24171071600192215
stp1233
Rp1234
sI1610
g1
((dp1235
I100
F1.3597883597883598
sI101
F1.4489214489214488
sI201
F1.4126984126984126
sI202
F1.124135124135124
sI301
F0.6231176231176231
sI302
F0.6336996336996337
sI303
F0.5075295075295075
sI401
F0.19332519332519332
sI402
F0.25478225478225475
sI403
F0.25803825803825803
stp1236
Rp1237
sI1611
g1
((dp1238
I100
F1.0
sI101
F1.728855721393035
sI201
F1.4262023217247097
sI202
F1.4390547263681592
sI301
F0.47927031509121065
sI302
F0.634742951907131
sI303
F0.6455223880597015
sI401
F0.10903814262023218
sI402
F0.19693200663349916
sI403
F0.2595356550580431
stp1239
Rp1240
sI1612
g1
((dp1241
I100
F0.7169614984391259
sI101
F2.08636836628512
sI201
F1.3423517169614985
sI202
F1.789802289281998
sI301
F0.33350676378772115
sI302
F0.6014568158168575
sI303
F0.7965660770031219
sI401
F0.05046826222684704
sI402
F0.1368366285119667
sI403
F0.24713839750260147
stp1242
Rp1243
sI1613
g1
((dp1244
I100
F0.4916666666666667
sI101
F2.559166666666667
sI201
F1.1491666666666667
sI202
F2.1500000000000004
sI301
F0.19833333333333333
sI302
F0.5341666666666667
sI303
F0.9633333333333334
sI401
F0.015833333333333335
sI402
F0.08083333333333334
sI403
F0.21916666666666668
stp1245
Rp1246
sI1614
g1
((dp1247
I100
F0.3087971274685817
sI101
F3.215439856373429
sI201
F0.8491921005385997
sI202
F2.4757630161579893
sI301
F0.08617594254937164
sI302
F0.4272890484739677
sI303
F1.1508078994614004
sI402
F0.03411131059245961
sI403
F0.17414721723518853
stp1248
Rp1249
sI1615
g1
((dp1250
I403
F0.10857142857142857
sI100
F0.15428571428571428
sI101
F4.177142857142857
sI201
F0.46285714285714286
sI202
F2.702857142857143
sI302
F0.2742857142857143
sI303
F1.36
stp1251
Rp1252
sI1616
g1
((dp1253
I202
F2.7
sI101
F5.8
sI303
F1.6
stp1254
Rp1255
sI1617
g1
((dp1256
tp1257
Rp1258
sI1618
g1
((dp1259
tp1260
Rp1261
sI1700
g1
((dp1262
I100
F17.0
stp1263
Rp1264
sI1701
g1
((dp1265
I401
F0.25
sI201
F0.25
sI100
F14.5
sI301
F0.25
sI101
F0.25
stp1266
Rp1267
sI1702
g1
((dp1268
I100
F12.461538461538462
sI101
F0.38461538461538464
sI201
F0.38461538461538464
sI202
F0.07692307692307693
sI301
F0.38461538461538464
sI302
F0.07692307692307693
sI401
F0.38461538461538464
sI402
F0.07692307692307693
stp1269
Rp1270
sI1703
g1
((dp1271
I100
F10.486486486486488
sI101
F0.4864864864864865
sI201
F0.5135135135135136
sI202
F0.13513513513513514
sI301
F0.5135135135135136
sI302
F0.13513513513513514
sI303
F0.02702702702702703
sI401
F0.5135135135135136
sI402
F0.13513513513513514
sI403
F0.02702702702702703
stp1272
Rp1273
sI1704
g1
((dp1274
I100
F8.489583333333332
sI101
F0.5729166666666666
sI201
F0.6354166666666666
sI202
F0.19791666666666666
sI301
F0.6458333333333333
sI302
F0.19791666666666666
sI303
F0.05208333333333333
sI401
F0.6458333333333333
sI402
F0.19791666666666666
sI403
F0.05208333333333333
stp1275
Rp1276
sI1705
g1
((dp1277
I100
F6.64935064935065
sI101
F0.6536796536796536
sI201
F0.7575757575757576
sI202
F0.26406926406926406
sI301
F0.7748917748917749
sI302
F0.2683982683982684
sI303
F0.08225108225108226
sI401
F0.7186147186147186
sI402
F0.2683982683982684
sI403
F0.08225108225108226
stp1278
Rp1279
sI1706
g1
((dp1280
I100
F5.0984251968503935
sI101
F0.7440944881889764
sI201
F0.889763779527559
sI202
F0.34448818897637795
sI301
F0.8759842519685039
sI302
F0.35236220472440943
sI303
F0.1220472440944882
sI401
F0.7106299212598425
sI402
F0.32677165354330706
sI403
F0.1220472440944882
stp1281
Rp1282
sI1707
g1
((dp1283
I100
F3.874125874125874
sI101
F0.8551448551448552
sI201
F1.033966033966034
sI202
F0.4515484515484515
sI301
F0.9300699300699301
sI302
F0.44455544455544455
sI303
F0.17882117882117882
sI401
F0.6333666333666333
sI402
F0.36063936063936064
sI403
F0.16583416583416583
stp1284
Rp1285
sI1708
g1
((dp1286
I100
F2.9430379746835444
sI101
F0.9913693901035673
sI201
F1.1841196777905638
sI202
F0.595512082853855
sI301
F0.9240506329113924
sI302
F0.5356731875719217
sI303
F0.25604142692750287
sI401
F0.5172612197928653
sI402
F0.36478711162255467
sI403
F0.20771001150747986
stp1287
Rp1288
sI1709
g1
((dp1289
I100
F2.237623762376238
sI101
F1.1561309977151562
sI201
F1.3271134805788272
sI202
F0.7837014470677838
sI301
F0.8632901751713633
sI302
F0.6115765422696116
sI303
F0.35453160700685454
sI401
F0.3903274942878903
sI402
F0.34234577303884234
sI403
F0.24143183549124145
stp1290
Rp1291
sI1710
g1
((dp1292
I100
F1.6987987108116027
sI101
F1.3551128039847642
sI201
F1.4424260181658366
sI202
F1.0210958101377088
sI301
F0.7573981834163492
sI302
F0.6642250219748023
sI303
F0.47055376501611484
sI401
F0.271901552886024
sI402
F0.3003222970993261
sI403
F0.2634046293583358
stp1293
Rp1294
sI1711
g1
((dp1295
I100
F1.2809346787041953
sI101
F1.597716409984068
sI201
F1.5042485395645246
sI202
F1.3072225172596919
sI301
F0.6232076473712161
sI302
F0.686404673393521
sI303
F0.6019649495485926
sI401
F0.1723313860860329
sI402
F0.24641529474243226
sI403
F0.27217206585236325
stp1296
Rp1297
sI1712
g1
((dp1298
I100
F0.9523809523809523
sI101
F1.8995670995670995
sI201
F1.488023088023088
sI202
F1.6349206349206349
sI301
F0.4753246753246753
sI302
F0.6773448773448774
sI303
F0.746031746031746
sI401
F0.09639249639249639
sI402
F0.1873015873015873
sI403
F0.26782106782106785
stp1299
Rp1300
sI1713
g1
((dp1301
I100
F0.6897880539499037
sI101
F2.2859344894026976
sI201
F1.3761078998073217
sI202
F1.986897880539499
sI301
F0.32947976878612717
sI302
F0.6346820809248555
sI303
F0.9044315992292871
sI401
F0.04431599229287091
sI402
F0.12870905587668593
sI403
F0.2500963391136802
stp1302
Rp1303
sI1714
g1
((dp1304
I100
F0.47709424083769636
sI101
F2.7951570680628275
sI201
F1.1629581151832462
sI202
F2.3370418848167542
sI301
F0.19502617801047123
sI302
F0.5595549738219896
sI303
F1.0778795811518325
sI401
F0.0137434554973822
sI402
F0.07526178010471204
sI403
F0.218586387434555
stp1305
Rp1306
sI1715
g1
((dp1307
I100
F0.3005952380952381
sI101
F3.494047619047619
sI201
F0.8526785714285714
sI202
F2.644345238095238
sI301
F0.08482142857142856
sI302
F0.44345238095238093
sI303
F1.2723214285714286
sI402
F0.03125
sI403
F0.17113095238095238
stp1308
Rp1309
sI1716
g1
((dp1310
I403
F0.1044776119402985
sI100
F0.14925373134328357
sI101
F4.507462686567164
sI201
F0.4626865671641791
sI202
F2.8507462686567164
sI302
F0.2835820895522388
sI303
F1.4825870646766168
stp1311
Rp1312
sI1717
g1
((dp1313
I202
F2.8181818181818183
sI101
F6.181818181818182
sI303
F1.7272727272727273
stp1314
Rp1315
sI1718
g1
((dp1316
tp1317
Rp1318
sI1719
g1
((dp1319
tp1320
Rp1321
sI1800
g1
((dp1322
I100
F18.0
stp1323
Rp1324
sI1801
g1
((dp1325
I401
F0.25
sI201
F0.25
sI100
F15.5
sI301
F0.25
sI101
F0.25
stp1326
Rp1327
sI1802
g1
((dp1328
I100
F13.461538461538462
sI101
F0.38461538461538464
sI201
F0.38461538461538464
sI202
F0.07692307692307693
sI301
F0.38461538461538464
sI302
F0.07692307692307693
sI401
F0.38461538461538464
sI402
F0.07692307692307693
stp1329
Rp1330
sI1803
g1
((dp1331
I100
F11.486486486486488
sI101
F0.4864864864864865
sI201
F0.5135135135135136
sI202
F0.13513513513513514
sI301
F0.5135135135135136
sI302
F0.13513513513513514
sI303
F0.02702702702702703
sI401
F0.5135135135135136
sI402
F0.13513513513513514
sI403
F0.02702702702702703
stp1332
Rp1333
sI1804
g1
((dp1334
I100
F9.489583333333332
sI101
F0.5729166666666666
sI201
F0.6354166666666666
sI202
F0.19791666666666666
sI301
F0.6458333333333333
sI302
F0.19791666666666666
sI303
F0.05208333333333333
sI401
F0.6458333333333333
sI402
F0.19791666666666666
sI403
F0.05208333333333333
stp1335
Rp1336
sI1805
g1
((dp1337
I100
F7.583690987124464
sI101
F0.648068669527897
sI201
F0.7553648068669527
sI202
F0.26180257510729615
sI301
F0.776824034334764
sI302
F0.26609442060085836
sI303
F0.0815450643776824
sI401
F0.7424892703862661
sI402
F0.26609442060085836
sI403
F0.0815450643776824
stp1338
Rp1339
sI1806
g1
((dp1340
I100
F5.900952380952381
sI101
F0.7276190476190476
sI201
F0.8819047619047619
sI202
F0.3352380952380952
sI301
F0.8933333333333333
sI302
F0.34476190476190477
sI303
F0.1180952380952381
sI401
F0.7695238095238095
sI402
F0.3295238095238095
sI403
F0.1180952380952381
stp1341
Rp1342
sI1807
g1
((dp1343
I100
F4.525974025974026
sI101
F0.8218923933209648
sI201
F1.0204081632653061
sI202
F0.4294990723562152
sI301
F0.9730983302411874
sI302
F0.4350649350649351
sI303
F0.1679035250463822
sI401
F0.7207792207792207
sI402
F0.3747680890538033
sI403
F0.16048237476808905
stp1344
Rp1345
sI1808
g1
((dp1346
I100
F3.4593639575971733
sI101
F0.9374053508329127
sI201
F1.1686017163048965
sI202
F0.5552751135790005
sI301
F0.9994952044422009
sI302
F0.5295305401312468
sI303
F0.23674911660777384
sI401
F0.6183745583038869
sI402
F0.392226148409894
sI403
F0.2039374053508329
stp1347
Rp1348
sI1809
g1
((dp1349
I100
F2.6469489414694896
sI101
F1.077521793275218
sI201
F1.3194271481942714
sI202
F0.7207347447073474
sI301
F0.9688667496886675
sI302
F0.6164383561643836
sI303
F0.32658779576587793
sI401
F0.49159402241594025
sI402
F0.38138231631382313
sI403
F0.24190535491905354
stp1350
Rp1351
sI1810
g1
((dp1352
I100
F2.0266226622662264
sI101
F1.2457645764576457
sI201
F1.4585258525852585
sI202
F0.9324532453245324
sI301
F0.8873487348734873
sI302
F0.6847084708470846
sI303
F0.43564356435643564
sI401
F0.36369636963696367
sI402
F0.3474147414741474
sI403
F0.2695269526952695
stp1353
Rp1354
sI1811
g1
((dp1355
I100
F1.5471902017291066
sI101
F1.4477665706051872
sI201
F1.5652017291066282
sI202
F1.1939841498559076
sI301
F0.766750720461095
sI302
F0.7264048991354466
sI303
F0.5605187319884726
sI401
F0.24927953890489912
sI402
F0.29773054755043227
sI403
F0.2844020172910663
stp1356
Rp1357
sI1812
g1
((dp1358
I100
F1.171023022329929
sI101
F1.693439501471352
sI201
F1.6138133979574172
sI202
F1.504240955513242
sI301
F0.6228146096589925
sI302
F0.7368876579539553
sI303
F0.6981132075471698
sI401
F0.15579020252726328
sI402
F0.23957071144192485
sI403
F0.28613467197507353
stp1359
Rp1360
sI1813
g1
((dp1361
I100
F0.8722896359657848
sI101
F1.9986075193952657
sI201
F1.5798687089715537
sI202
F1.85458523970559
sI301
F0.47045951859956237
sI302
F0.7157350308334991
sI303
F0.8468271334792122
sI401
F0.08593594589218222
sI402
F0.17903322060871296
sI403
F0.27531330813606525
stp1362
Rp1363
sI1814
g1
((dp1364
I100
F0.632567264573991
sI101
F2.389854260089686
sI201
F1.4459080717488788
sI202
F2.225896860986547
sI301
F0.32371076233183854
sI302
F0.6628363228699552
sI303
F1.0084080717488788
sI401
F0.038957399103139015
sI402
F0.1210762331838565
sI403
F0.2522421524663677
stp1365
Rp1366
sI1815
g1
((dp1367
I100
F0.4383149448345035
sI101
F2.9082246740220663
sI201
F1.208124373119358
sI202
F2.587261785356068
sI301
F0.19107321965897694
sI302
F0.5792377131394183
sI303
F1.1860581745235708
sI401
F0.012036108324974926
sI402
F0.06970912738214644
sI403
F0.21664994984954863
stp1368
Rp1369
sI1816
g1
((dp1370
I100
F0.27731092436974786
sI101
F3.6254501800720287
sI201
F0.8751500600240095
sI202
F2.891956782713085
sI301
F0.08283313325330131
sI302
F0.4573829531812725
sI303
F1.3865546218487395
sI402
F0.028811524609843937
sI403
F0.16686674669867946
stp1371
Rp1372
sI1817
g1
((dp1373
I403
F0.10126582278481011
sI100
F0.13924050632911392
sI101
F4.670886075949367
sI201
F0.4683544303797468
sI202
F3.0759493670886076
sI302
F0.2911392405063291
sI303
F1.6075949367088607
stp1374
Rp1375
sI1818
g1
((dp1376
I202
F3.0
sI101
F6.405405405405406
sI303
F1.864864864864865
stp1377
Rp1378
sI1819
g1
((dp1379
tp1380
Rp1381
sI1900
g1
((dp1382
I100
F19.0
stp1383
Rp1384
sI1901
g1
((dp1385
I401
F0.25
sI201
F0.25
sI100
F16.5
sI301
F0.25
sI101
F0.25
stp1386
Rp1387
sI1902
g1
((dp1388
I100
F14.461538461538462
sI101
F0.38461538461538464
sI201
F0.38461538461538464
sI202
F0.07692307692307693
sI301
F0.38461538461538464
sI302
F0.07692307692307693
sI401
F0.38461538461538464
sI402
F0.07692307692307693
stp1389
Rp1390
sI1903
g1
((dp1391
I100
F12.486486486486488
sI101
F0.4864864864864865
sI201
F0.5135135135135136
sI202
F0.13513513513513514
sI301
F0.5135135135135136
sI302
F0.13513513513513514
sI303
F0.02702702702702703
sI401
F0.5135135135135136
sI402
F0.13513513513513514
sI403
F0.02702702702702703
stp1392
Rp1393
sI1904
g1
((dp1394
I100
F10.489583333333332
sI101
F0.5729166666666666
sI201
F0.6354166666666666
sI202
F0.19791666666666666
sI301
F0.6458333333333333
sI302
F0.19791666666666666
sI303
F0.05208333333333333
sI401
F0.6458333333333333
sI402
F0.19791666666666666
sI403
F0.05208333333333333
stp1395
Rp1396
sI1905
g1
((dp1397
I100
F8.547008547008549
sI101
F0.6452991452991453
sI201
F0.7521367521367522
sI202
F0.2606837606837607
sI301
F0.7777777777777779
sI302
F0.26495726495726496
sI303
F0.0811965811965812
sI401
F0.7564102564102565
sI402
F0.26495726495726496
sI403
F0.0811965811965812
stp1398
Rp1399
sI1906
g1
((dp1400
I100
F6.77196261682243
sI101
F0.7177570093457945
sI201
F0.8728971962616823
sI202
F0.32897196261682243
sI301
F0.9046728971962618
sI302
F0.3401869158878505
sI303
F0.11588785046728972
sI401
F0.8093457943925234
sI402
F0.33084112149532713
sI403
F0.11588785046728972
stp1401
Rp1402
sI1907
g1
((dp1403
I100
F5.267020335985853
sI101
F0.801945181255526
sI201
F1.0035366931918654
sI202
F0.41290893015030944
sI301
F1.0053050397877983
sI302
F0.42793987621573826
sI303
F0.16091954022988506
sI401
F0.7895667550839964
sI402
F0.3828470380194518
sI403
F0.15649867374005305
stp1404
Rp1405
sI1908
g1
((dp1406
I100
F4.069092584062644
sI101
F0.9046522339935514
sI201
F1.1460156609857208
sI202
F0.5228005527406725
sI301
F1.0603408567480423
sI302
F0.5237217871948411
sI303
F0.22293873790879778
sI401
F0.7061262091202211
sI402
F0.4113311837862736
sI403
F0.19944725932749885
stp1407
Rp1408
sI1909
g1
((dp1409
I100
F3.1430104641803056
sI101
F1.0297826670244163
sI201
F1.2962167963509525
sI202
F0.6675610410517843
sI301
F1.059833646364368
sI302
F0.6176549503622216
sI303
F0.3050711027636168
sI401
F0.5870673463911993
sI402
F0.41132277971558895
sI403
F0.23960289777300778
stp1410
Rp1411
sI1910
g1
((dp1412
I100
F2.4325375773651636
sI101
F1.1800176834659593
sI201
F1.4445623342175067
sI202
F0.8542882404951371
sI301
F1.005128205128205
sI302
F0.6984969053934571
sI303
F0.4070733863837312
sI401
F0.4564102564102564
sI402
F0.38691423519009727
sI403
F0.2710875331564987
stp1413
Rp1414
sI1911
g1
((dp1415
I100
F1.8833399920095883
sI101
F1.3593021707284592
sI201
F1.5742442402450392
sI202
F1.0878945265681181
sI301
F0.9045145825009987
sI302
F0.7569583166866426
sI303
F0.5260354241576775
sI401
F0.332534292182714
sI402
F0.34372086829138365
sI403
F0.29138367292582235
stp1416
Rp1417
sI1912
g1
((dp1418
I100
F1.4533024333719582
sI101
F1.574739281575898
sI201
F1.6632676709154113
sI202
F1.3697566628041715
sI301
F0.7712630359212052
sI302
F0.7870220162224797
sI303
F0.6586326767091542
sI401
F0.2253765932792584
sI402
F0.28933951332560837
sI403
F0.2990730011587486
stp1419
Rp1420
sI1913
g1
((dp1421
I100
F1.1117410819749587
sI101
F1.8379399952752185
sI201
F1.6874557051736356
sI202
F1.695487833687692
sI301
F0.6201275690999292
sI302
F0.7862036380817388
sI303
F0.8022678951098512
sI401
F0.13997165131112685
sI402
F0.2297424994094023
sI403
F0.29494448381762345
stp1422
Rp1423
sI1914
g1
((dp1424
I100
F0.8371658522563955
sI101
F2.166427134233975
sI201
F1.627191721759126
sI202
F2.0531762000574876
sI301
F0.464932451853981
sI302
F0.7545271629778671
sI303
F0.9565967231963207
sI401
F0.07703363035354986
sI402
F0.17030755964357572
sI403
F0.27953434895084794
stp1425
Rp1426
sI1915
g1
((dp1427
I100
F0.613607188703466
sI101
F2.587719298245614
sI201
F1.4711168164313222
sI202
F2.4223363286264443
sI301
F0.3175010697475396
sI302
F0.6921266581086863
sI303
F1.123234916559692
sI401
F0.03508771929824561
sI402
F0.11467693624304665
sI403
F0.2535301668806162
stp1428
Rp1429
sI1916
g1
((dp1430
I100
F0.4292053247277128
sI101
F3.1436062928600244
sI201
F1.2190399354578458
sI202
F2.7736990722065347
sI301
F0.18596208148446955
sI302
F0.5986284792254941
sI303
F1.3049616780960065
sI401
F0.010891488503428802
sI402
F0.06615570794675273
sI403
F0.2162162162162162
stp1431
Rp1432
sI1917
g1
((dp1433
I100
F0.2738336713995943
sI101
F3.907707910750507
sI201
F0.8793103448275862
sI202
F3.0649087221095335
sI301
F0.07910750507099391
sI302
F0.46754563894523327
sI303
F1.5050709939148073
sI402
F0.02738336713995943
sI403
F0.1663286004056795
stp1434
Rp1435
sI1918
g1
((dp1436
I403
F0.10074626865671642
sI100
F0.13805970149253732
sI101
F5.014925373134329
sI201
F0.47014925373134325
sI202
F3.2350746268656714
sI302
F0.291044776119403
sI303
F1.7201492537313432
stp1437
Rp1438
sI1919
g1
((dp1439
I202
F3.1500000000000004
sI101
F6.8500000000000005
sI303
F1.9500000000000002
stp1440
Rp1441
sI2000
g1
((dp1442
I100
F20.0
stp1443
Rp1444
sI2001
g1
((dp1445
I401
F0.25
sI201
F0.25
sI100
F17.5
sI301
F0.25
sI101
F0.25
stp1446
Rp1447
sI2002
g1
((dp1448
I100
F15.461538461538462
sI101
F0.38461538461538464
sI201
F0.38461538461538464
sI202
F0.07692307692307693
sI301
F0.38461538461538464
sI302
F0.07692307692307693
sI401
F0.38461538461538464
sI402
F0.07692307692307693
stp1449
Rp1450
sI2003
g1
((dp1451
I100
F13.486486486486488
sI101
F0.4864864864864865
sI201
F0.5135135135135136
sI202
F0.13513513513513514
sI301
F0.5135135135135136
sI302
F0.13513513513513514
sI303
F0.02702702702702703
sI401
F0.5135135135135136
sI402
F0.13513513513513514
sI403
F0.02702702702702703
stp1452
Rp1453
sI2004
g1
((dp1454
I100
F11.489583333333332
sI101
F0.5729166666666666
sI201
F0.6354166666666666
sI202
F0.19791666666666666
sI301
F0.6458333333333333
sI302
F0.19791666666666666
sI303
F0.05208333333333333
sI401
F0.6458333333333333
sI402
F0.19791666666666666
sI403
F0.05208333333333333
stp1455
Rp1456
sI2005
g1
((dp1457
I100
F9.506382978723405
sI101
F0.6425531914893617
sI201
F0.7489361702127659
sI202
F0.25957446808510637
sI301
F0.774468085106383
sI302
F0.26382978723404255
sI303
F0.08085106382978724
sI401
F0.774468085106383
sI402
F0.26382978723404255
sI403
F0.08085106382978724
stp1458
Rp1459
sI2006
g1
((dp1460
I100
F7.643382352941177
sI101
F0.7077205882352942
sI201
F0.8639705882352942
sI202
F0.3235294117647059
sI301
F0.9025735294117647
sI302
F0.33455882352941174
sI303
F0.11397058823529412
sI401
F0.8566176470588235
sI402
F0.33455882352941174
sI403
F0.11397058823529412
stp1461
Rp1462
sI2007
g1
((dp1463
I100
F6.016977928692699
sI101
F0.7801358234295416
sI201
F0.9881154499151104
sI202
F0.398981324278438
sI301
F1.0135823429541595
sI302
F0.4168081494057725
sI303
F0.15449915110356535
sI401
F0.868421052631579
sI402
F0.39558573853989815
sI403
F0.15449915110356535
stp1464
Rp1465
sI2008
g1
((dp1466
I100
F4.692963752665245
sI101
F0.8690831556503198
sI201
F1.126226012793177
sI202
F0.49637526652452024
sI301
F1.0899786780383796
sI302
F0.5091684434968017
sI303
F0.20938166311300638
sI401
F0.8068230277185501
sI402
F0.43624733475479743
sI403
F0.19872068230277184
stp1467
Rp1468
sI2009
g1
((dp1469
I100
F3.654674556213018
sI101
F0.978698224852071
sI201
F1.2771597633136094
sI202
F0.6250887573964496
sI301
F1.1171597633136094
sI302
F0.6049704142011835
sI303
F0.282603550295858
sI401
F0.6970414201183431
sI402
F0.44781065088757394
sI403
F0.2421301775147929
stp1470
Rp1471
sI2010
g1
((dp1472
I100
F2.851623328926105
sI101
F1.111355957102982
sI201
F1.4345526663728514
sI202
F0.7927133832819157
sI301
F1.091523431761422
sI302
F0.6934038489789921
sI303
F0.37549581313353897
sI401
F0.5647127956515351
sI402
F0.43264286763625676
sI403
F0.2779491699720875
stp1473
Rp1474
sI2011
g1
((dp1475
I100
F2.228386167146974
sI101
F1.2688349114862083
sI201
F1.586249485384932
sI202
F1.005043227665706
sI301
F1.0159530671058048
sI302
F0.7647179909427748
sI303
F0.4857966241251544
sI401
F0.43145327295183206
sI402
F0.39563606422396047
sI403
F0.3031082750102923
stp1476
Rp1477
sI2012
g1
((dp1478
I100
F1.7389733059548254
sI101
F1.455112936344969
sI201
F1.7142505133470225
sI202
F1.2658726899383983
sI301
F0.9006160164271046
sI302
F0.8107597535934291
sI303
F0.6102669404517453
sI401
F0.31014373716632443
sI402
F0.344312114989733
sI403
F0.3157289527720739
stp1479
Rp1480
sI2013
g1
((dp1481
I100
F1.3494867149758454
sI101
F1.677234299516908
sI201
F1.7957427536231882
sI202
F1.575407608695652
sI301
F0.7581521739130435
sI302
F0.8276721014492753
sI303
F0.7450935990338164
sI401
F0.208106884057971
sI402
F0.28502415458937197
sI403
F0.3164251207729468
stp1482
Rp1483
sI2014
g1
((dp1484
I100
F1.0359834670556771
sI101
F1.9471594132425643
sI201
F1.8066293864980953
sI202
F1.9280330658886458
sI301
F0.6032903800956317
sI302
F0.8140043763676149
sI303
F0.8886457573547288
sI401
F0.12796823081286976
sI402
F0.2234378798930221
sI403
F0.3060215576626955
stp1485
Rp1486
sI2015
g1
((dp1487
I100
F0.7816354026323972
sI101
F2.2833454243963103
sI201
F1.7275365322831382
sI202
F2.3102912218882787
sI301
F0.4485438905586071
sI302
F0.7714789097315784
sI303
F1.0409368846512592
sI401
F0.06974816043113276
sI402
F0.16364390092237538
sI403
F0.28572909109752304
stp1488
Rp1489
sI2016
g1
((dp1490
I100
F0.5736722797927462
sI101
F2.715187823834197
sI201
F1.5482512953367875
sI202
F2.6989961139896375
sI301
F0.3047279792746114
sI302
F0.7007772020725389
sI303
F1.2053108808290156
sI401
F0.031411917098445596
sI402
F0.10897020725388601
sI403
F0.2556670984455959
stp1491
Rp1492
sI2017
g1
((dp1493
I100
F0.4020486555697823
sI101
F3.28809218950064
sI201
F1.2711267605633803
sI202
F3.060819462227913
sI301
F0.17797695262483995
sI302
F0.6024327784891165
sI303
F1.385403329065301
sI401
F0.009603072983354673
sI402
F0.06209987195902689
sI403
F0.21542893725992315
stp1494
Rp1495
sI2018
g1
((dp1496
I100
F0.2571669477234401
sI101
F4.080101180438448
sI201
F0.9080944350758853
sI202
F3.34822934232715
sI301
F0.07588532883642496
sI302
F0.4688026981450253
sI303
F1.5868465430016863
sI402
F0.025295109612141653
sI403
F0.163575042158516
stp1497
Rp1498
sI2019
g1
((dp1499
I403
F0.09740259740259741
sI100
F0.12987012987012989
sI101
F5.233766233766234
sI201
F0.48051948051948057
sI202
F3.496753246753247
sI302
F0.29220779220779225
sI303
F1.8051948051948052
stp1500
Rp1501
sI2020
g1
((dp1502
I202
F3.3636363636363638
sI101
F7.136363636363637
sI303
F2.0454545454545454
stp1503
Rp1504
s.